
micscif_api.o:     file format elf64-x86-64


Disassembly of section .text:

0000000000000000 <vma_pvt_release>:
				 */
	struct kref ref;
};

static void vma_pvt_release(struct kref *ref)
{
       0:	55                   	push   %rbp
       1:	48 89 e5             	mov    %rsp,%rbp
       4:	e8 00 00 00 00       	callq  9 <vma_pvt_release+0x9>
	struct vma_pvt *vmapvt = container_of(ref, struct vma_pvt, ref);
       9:	48 83 ef 14          	sub    $0x14,%rdi
	kfree(vmapvt);
       d:	e8 00 00 00 00       	callq  12 <vma_pvt_release+0x12>
}
      12:	5d                   	pop    %rbp
      13:	c3                   	retq   
      14:	66 66 66 2e 0f 1f 84 	data32 data32 nopw %cs:0x0(%rax,%rax,1)
      1b:	00 00 00 00 00 

0000000000000020 <scif_event_register>:
	return ret;
}
EXPORT_SYMBOL(scif_put_pages);

int scif_event_register(scif_callback_t handler)
{
      20:	55                   	push   %rbp
      21:	48 89 e5             	mov    %rsp,%rbp
      24:	41 54                	push   %r12
      26:	53                   	push   %rbx
      27:	e8 00 00 00 00       	callq  2c <scif_event_register+0xc>
      2c:	49 89 fc             	mov    %rdi,%r12
	int index = kmalloc_index(size);

	if (index == 0)
		return NULL;

	return kmalloc_caches[index];
      2f:	48 8b 3d 00 00 00 00 	mov    0x0(%rip),%rdi        # 36 <scif_event_register+0x16>
			return kmalloc_large(size, flags);

		if (!(flags & SLUB_DMA)) {
			struct kmem_cache *s = kmalloc_slab(size);

			if (!s)
      36:	48 85 ff             	test   %rdi,%rdi
      39:	74 5d                	je     98 <scif_event_register+0x78>
				return ZERO_SIZE_PTR;

			return kmem_cache_alloc_trace(s, flags, size);
      3b:	ba 18 00 00 00       	mov    $0x18,%edx
      40:	be d0 00 00 00       	mov    $0xd0,%esi
      45:	e8 00 00 00 00       	callq  4a <scif_event_register+0x2a>
	/* Add to the list of event handlers */
	struct scif_callback *cb = kmalloc(sizeof(*cb), GFP_KERNEL);
	if (!cb)
      4a:	48 85 c0             	test   %rax,%rax
      4d:	48 89 c3             	mov    %rax,%rbx
      50:	74 4e                	je     a0 <scif_event_register+0x80>
		return -ENOMEM;
	mutex_lock(&ms_info.mi_event_cblock);
      52:	48 c7 c7 00 00 00 00 	mov    $0x0,%rdi
      59:	e8 00 00 00 00       	callq  5e <scif_event_register+0x3e>
	cb->callback_handler = handler;
      5e:	4c 89 63 10          	mov    %r12,0x10(%rbx)
	list_add_tail(&cb->list_member, &ms_info.mi_event_cb);
	mutex_unlock(&ms_info.mi_event_cblock);
      62:	48 c7 c7 00 00 00 00 	mov    $0x0,%rdi
 * Insert a new entry before the specified head.
 * This is useful for implementing queues.
 */
static inline void list_add_tail(struct list_head *new, struct list_head *head)
{
	__list_add(new, head->prev, head);
      69:	48 8b 05 00 00 00 00 	mov    0x0(%rip),%rax        # 70 <scif_event_register+0x50>
#ifndef CONFIG_DEBUG_LIST
static inline void __list_add(struct list_head *new,
			      struct list_head *prev,
			      struct list_head *next)
{
	next->prev = new;
      70:	48 89 1d 00 00 00 00 	mov    %rbx,0x0(%rip)        # 77 <scif_event_register+0x57>
	new->next = next;
      77:	48 c7 03 00 00 00 00 	movq   $0x0,(%rbx)
	new->prev = prev;
      7e:	48 89 43 08          	mov    %rax,0x8(%rbx)
	prev->next = new;
      82:	48 89 18             	mov    %rbx,(%rax)
      85:	e8 00 00 00 00       	callq  8a <scif_event_register+0x6a>
	return 0;
      8a:	31 c0                	xor    %eax,%eax
}
      8c:	5b                   	pop    %rbx
      8d:	41 5c                	pop    %r12
      8f:	5d                   	pop    %rbp
      90:	c3                   	retq   
      91:	0f 1f 80 00 00 00 00 	nopl   0x0(%rax)

		if (!(flags & SLUB_DMA)) {
			struct kmem_cache *s = kmalloc_slab(size);

			if (!s)
				return ZERO_SIZE_PTR;
      98:	bb 10 00 00 00       	mov    $0x10,%ebx
      9d:	eb b3                	jmp    52 <scif_event_register+0x32>
      9f:	90                   	nop
int scif_event_register(scif_callback_t handler)
{
	/* Add to the list of event handlers */
	struct scif_callback *cb = kmalloc(sizeof(*cb), GFP_KERNEL);
	if (!cb)
		return -ENOMEM;
      a0:	b8 f4 ff ff ff       	mov    $0xfffffff4,%eax
      a5:	eb e5                	jmp    8c <scif_event_register+0x6c>
      a7:	66 0f 1f 84 00 00 00 	nopw   0x0(%rax,%rax,1)
      ae:	00 00 

00000000000000b0 <scif_event_unregister>:
	return 0;
}
EXPORT_SYMBOL(scif_event_register);

int scif_event_unregister(scif_callback_t handler)
{
      b0:	55                   	push   %rbp
      b1:	48 89 e5             	mov    %rsp,%rbp
      b4:	41 54                	push   %r12
      b6:	53                   	push   %rbx
      b7:	e8 00 00 00 00       	callq  bc <scif_event_unregister+0xc>
	struct list_head *pos, *unused;
	struct scif_callback *temp;
	int err = -EINVAL;
      bc:	41 bc ea ff ff ff    	mov    $0xffffffea,%r12d
	return 0;
}
EXPORT_SYMBOL(scif_event_register);

int scif_event_unregister(scif_callback_t handler)
{
      c2:	48 89 fb             	mov    %rdi,%rbx
	struct list_head *pos, *unused;
	struct scif_callback *temp;
	int err = -EINVAL;

	mutex_lock(&ms_info.mi_event_cblock);
      c5:	48 c7 c7 00 00 00 00 	mov    $0x0,%rdi
      cc:	e8 00 00 00 00       	callq  d1 <scif_event_unregister+0x21>
	list_for_each_safe(pos, unused, &ms_info.mi_event_cb) {
      d1:	48 8b 0d 00 00 00 00 	mov    0x0(%rip),%rcx        # d8 <scif_event_unregister+0x28>
      d8:	48 81 f9 00 00 00 00 	cmp    $0x0,%rcx
      df:	48 8b 39             	mov    (%rcx),%rdi
      e2:	74 27                	je     10b <scif_event_unregister+0x5b>
		temp = list_entry(pos, struct scif_callback, list_member);
		if (temp->callback_handler == handler) {
      e4:	48 39 59 10          	cmp    %rbx,0x10(%rcx)
      e8:	75 0f                	jne    f9 <scif_event_unregister+0x49>
      ea:	eb 33                	jmp    11f <scif_event_unregister+0x6f>
      ec:	0f 1f 40 00          	nopl   0x0(%rax)
      f0:	48 39 5f 10          	cmp    %rbx,0x10(%rdi)
      f4:	74 32                	je     128 <scif_event_unregister+0x78>
	struct list_head *pos, *unused;
	struct scif_callback *temp;
	int err = -EINVAL;

	mutex_lock(&ms_info.mi_event_cblock);
	list_for_each_safe(pos, unused, &ms_info.mi_event_cb) {
      f6:	48 89 c7             	mov    %rax,%rdi
      f9:	48 81 ff 00 00 00 00 	cmp    $0x0,%rdi
     100:	48 8b 07             	mov    (%rdi),%rax
     103:	75 eb                	jne    f0 <scif_event_unregister+0x40>

int scif_event_unregister(scif_callback_t handler)
{
	struct list_head *pos, *unused;
	struct scif_callback *temp;
	int err = -EINVAL;
     105:	41 bc ea ff ff ff    	mov    $0xffffffea,%r12d
			kfree(temp);
			break;
		}
	}

	mutex_unlock(&ms_info.mi_event_cblock);
     10b:	48 c7 c7 00 00 00 00 	mov    $0x0,%rdi
     112:	e8 00 00 00 00       	callq  117 <scif_event_unregister+0x67>
	return err;
}
     117:	44 89 e0             	mov    %r12d,%eax
     11a:	5b                   	pop    %rbx
     11b:	41 5c                	pop    %r12
     11d:	5d                   	pop    %rbp
     11e:	c3                   	retq   
	int err = -EINVAL;

	mutex_lock(&ms_info.mi_event_cblock);
	list_for_each_safe(pos, unused, &ms_info.mi_event_cb) {
		temp = list_entry(pos, struct scif_callback, list_member);
		if (temp->callback_handler == handler) {
     11f:	48 89 f8             	mov    %rdi,%rax
     122:	48 89 cf             	mov    %rcx,%rdi
     125:	0f 1f 00             	nopl   (%rax)
	__list_del(entry->prev, entry->next);
}

static inline void list_del(struct list_head *entry)
{
	__list_del(entry->prev, entry->next);
     128:	48 8b 4f 08          	mov    0x8(%rdi),%rcx
			err = 0;
     12c:	45 31 e4             	xor    %r12d,%r12d
 * This is only for internal list manipulation where we know
 * the prev/next entries already!
 */
static inline void __list_del(struct list_head * prev, struct list_head * next)
{
	next->prev = prev;
     12f:	48 89 48 08          	mov    %rcx,0x8(%rax)
	prev->next = next;
     133:	48 89 01             	mov    %rax,(%rcx)
}

static inline void list_del(struct list_head *entry)
{
	__list_del(entry->prev, entry->next);
	entry->next = LIST_POISON1;
     136:	48 b8 00 01 10 00 00 	movabs $0xdead000000100100,%rax
     13d:	00 ad de 
     140:	48 89 07             	mov    %rax,(%rdi)
	entry->prev = LIST_POISON2;
     143:	48 b8 00 02 20 00 00 	movabs $0xdead000000200200,%rax
     14a:	00 ad de 
     14d:	48 89 47 08          	mov    %rax,0x8(%rdi)
			list_del(pos);
			kfree(temp);
     151:	e8 00 00 00 00       	callq  156 <scif_event_unregister+0xa6>
			break;
     156:	eb b3                	jmp    10b <scif_event_unregister+0x5b>
     158:	0f 1f 84 00 00 00 00 	nopl   0x0(%rax,%rax,1)
     15f:	00 

0000000000000160 <scif_get_nodeIDs>:
 *	scif_get_nodeIDs() returns the total number of scif nodes
 *	(including host) in the system
 */
int
scif_get_nodeIDs(uint16_t *nodes, int len, uint16_t *self)
{
     160:	55                   	push   %rbp
     161:	48 89 e5             	mov    %rsp,%rbp
     164:	41 54                	push   %r12
     166:	53                   	push   %rbx
     167:	e8 00 00 00 00       	callq  16c <scif_get_nodeIDs+0xc>
	int node;
#ifdef _MIC_SCIF_
	micscif_get_node_info();
#endif

	*self = ms_info.mi_nodeid;
     16c:	8b 05 00 00 00 00    	mov    0x0(%rip),%eax        # 172 <scif_get_nodeIDs+0x12>
 *	scif_get_nodeIDs() returns the total number of scif nodes
 *	(including host) in the system
 */
int
scif_get_nodeIDs(uint16_t *nodes, int len, uint16_t *self)
{
     172:	49 89 fc             	mov    %rdi,%r12
	int node;
#ifdef _MIC_SCIF_
	micscif_get_node_info();
#endif

	*self = ms_info.mi_nodeid;
     175:	66 89 02             	mov    %ax,(%rdx)
	mutex_lock(&ms_info.mi_conflock);
     178:	48 c7 c7 00 00 00 00 	mov    $0x0,%rdi
 *	scif_get_nodeIDs() returns the total number of scif nodes
 *	(including host) in the system
 */
int
scif_get_nodeIDs(uint16_t *nodes, int len, uint16_t *self)
{
     17f:	89 f3                	mov    %esi,%ebx
#ifdef _MIC_SCIF_
	micscif_get_node_info();
#endif

	*self = ms_info.mi_nodeid;
	mutex_lock(&ms_info.mi_conflock);
     181:	e8 00 00 00 00       	callq  186 <scif_get_nodeIDs+0x26>
	len = SCIF_MIN(len, (int32_t)ms_info.mi_total);
     186:	8b 35 00 00 00 00    	mov    0x0(%rip),%esi        # 18c <scif_get_nodeIDs+0x2c>
	for (node = 0; node <=(int32_t)ms_info.mi_maxid; node++) {
     18c:	8b 05 00 00 00 00    	mov    0x0(%rip),%eax        # 192 <scif_get_nodeIDs+0x32>
	micscif_get_node_info();
#endif

	*self = ms_info.mi_nodeid;
	mutex_lock(&ms_info.mi_conflock);
	len = SCIF_MIN(len, (int32_t)ms_info.mi_total);
     192:	39 f3                	cmp    %esi,%ebx
     194:	0f 4e f3             	cmovle %ebx,%esi
	for (node = 0; node <=(int32_t)ms_info.mi_maxid; node++) {
     197:	85 c0                	test   %eax,%eax
     199:	78 4c                	js     1e7 <scif_get_nodeIDs+0x87>
     19b:	31 d2                	xor    %edx,%edx
     19d:	45 31 c0             	xor    %r8d,%r8d
     1a0:	31 db                	xor    %ebx,%ebx
     1a2:	66 0f 1f 44 00 00    	nopw   0x0(%rax,%rax,1)
		if (ms_info.mi_mask & (1UL << node)) {
     1a8:	48 8b 0d 00 00 00 00 	mov    0x0(%rip),%rcx        # 1af <scif_get_nodeIDs+0x4f>
     1af:	48 0f a3 d1          	bt     %rdx,%rcx
     1b3:	73 14                	jae    1c9 <scif_get_nodeIDs+0x69>
			online++;
     1b5:	83 c3 01             	add    $0x1,%ebx
			if (offset < len)
     1b8:	44 39 c6             	cmp    %r8d,%esi
     1bb:	7e 0c                	jle    1c9 <scif_get_nodeIDs+0x69>
				nodes[offset++] = node;
     1bd:	49 63 c0             	movslq %r8d,%rax
     1c0:	41 83 c0 01          	add    $0x1,%r8d
     1c4:	66 41 89 14 44       	mov    %dx,(%r12,%rax,2)
#endif

	*self = ms_info.mi_nodeid;
	mutex_lock(&ms_info.mi_conflock);
	len = SCIF_MIN(len, (int32_t)ms_info.mi_total);
	for (node = 0; node <=(int32_t)ms_info.mi_maxid; node++) {
     1c9:	83 c2 01             	add    $0x1,%edx
     1cc:	39 15 00 00 00 00    	cmp    %edx,0x0(%rip)        # 1d2 <scif_get_nodeIDs+0x72>
     1d2:	7d d4                	jge    1a8 <scif_get_nodeIDs+0x48>
				nodes[offset++] = node;
		}
	}
	pr_debug("SCIFAPI get_nodeIDs total %d online %d filled in %d nodes\n", 
		ms_info.mi_total, online, len);
	mutex_unlock(&ms_info.mi_conflock);
     1d4:	48 c7 c7 00 00 00 00 	mov    $0x0,%rdi
     1db:	e8 00 00 00 00       	callq  1e0 <scif_get_nodeIDs+0x80>

	return online;
}
     1e0:	89 d8                	mov    %ebx,%eax
     1e2:	5b                   	pop    %rbx
     1e3:	41 5c                	pop    %r12
     1e5:	5d                   	pop    %rbp
     1e6:	c3                   	retq   
 *	(including host) in the system
 */
int
scif_get_nodeIDs(uint16_t *nodes, int len, uint16_t *self)
{
	int online = 0;
     1e7:	31 db                	xor    %ebx,%ebx
     1e9:	eb e9                	jmp    1d4 <scif_get_nodeIDs+0x74>
     1eb:	0f 1f 44 00 00       	nopl   0x0(%rax,%rax,1)

00000000000001f0 <scif_vma_open>:
 * The kernel invokes this function only on one of the two VMAs.
 *
 * Return Values: None.
 */
static void scif_vma_open(struct vm_area_struct *vma)
{
     1f0:	55                   	push   %rbp
     1f1:	48 89 e5             	mov    %rsp,%rbp
     1f4:	e8 00 00 00 00       	callq  1f9 <scif_vma_open+0x9>
	struct vma_pvt *vmapvt = ((vma)->vm_private_data);
	pr_debug("SCIFAPI vma open: vma_start 0x%lx vma_end 0x%lx\n", 
			((vma)->vm_start), ((vma)->vm_end));
	kref_get(&vmapvt->ref);
     1f9:	48 8b bf a0 00 00 00 	mov    0xa0(%rdi),%rdi
     200:	48 83 c7 14          	add    $0x14,%rdi
     204:	e8 00 00 00 00       	callq  209 <scif_vma_open+0x19>
}
     209:	5d                   	pop    %rbp
     20a:	c3                   	retq   
     20b:	0f 1f 44 00 00       	nopl   0x0(%rax,%rax,1)

0000000000000210 <scif_readfrom>:
 *	else an apt error is returned as documented in scif.h.
 */
int
scif_readfrom(scif_epd_t epd, off_t loffset, size_t len,
				off_t roffset, int flags)
{
     210:	55                   	push   %rbp
     211:	48 89 e5             	mov    %rsp,%rbp
     214:	41 57                	push   %r15
     216:	41 56                	push   %r14
     218:	41 55                	push   %r13
     21a:	41 54                	push   %r12
     21c:	53                   	push   %rbx
     21d:	48 83 ec 28          	sub    $0x28,%rsp
     221:	e8 00 00 00 00       	callq  226 <scif_readfrom+0x16>
 * to synchronize calling this API with put_kref_count.
 */
static __always_inline void
get_kref_count(scif_epd_t epd)
{
	kref_get(&(epd->ref_count));
     226:	48 8d 87 70 01 00 00 	lea    0x170(%rdi),%rax
     22d:	48 89 f3             	mov    %rsi,%rbx
     230:	49 89 cc             	mov    %rcx,%r12
     233:	49 89 fd             	mov    %rdi,%r13
     236:	48 89 c7             	mov    %rax,%rdi
     239:	49 89 d7             	mov    %rdx,%r15
     23c:	48 89 45 c8          	mov    %rax,-0x38(%rbp)
     240:	45 89 c6             	mov    %r8d,%r14d
     243:	e8 00 00 00 00       	callq  248 <scif_readfrom+0x38>
#endif

static __always_inline
bool is_unaligned(off_t src_offset, off_t dst_offset)
{
        src_offset = src_offset & (L1_CACHE_BYTES - 1);
     248:	48 89 da             	mov    %rbx,%rdx
        dst_offset = dst_offset & (L1_CACHE_BYTES - 1);
     24b:	4c 89 e0             	mov    %r12,%rax
#endif

static __always_inline
bool is_unaligned(off_t src_offset, off_t dst_offset)
{
        src_offset = src_offset & (L1_CACHE_BYTES - 1);
     24e:	83 e2 3f             	and    $0x3f,%edx
        dst_offset = dst_offset & (L1_CACHE_BYTES - 1);
     251:	83 e0 3f             	and    $0x3f,%eax
        if (src_offset == dst_offset)
     254:	48 39 c2             	cmp    %rax,%rdx
     257:	75 49                	jne    2a2 <scif_readfrom+0x92>
     259:	eb 50                	jmp    2ab <scif_readfrom+0x9b>
     25b:	0f 1f 44 00 00       	nopl   0x0(%rax,%rax,1)
		" offset 0x%lx flags 0x%x\n", 
		epd, loffset, len, roffset, flags);

	if (is_unaligned(loffset, roffset)) {
		while(len > MAX_UNALIGNED_BUF_SIZE) {
			err = micscif_rma_copy(epd, loffset, NULL,
     260:	31 d2                	xor    %edx,%edx
     262:	c7 44 24 08 00 00 00 	movl   $0x0,0x8(%rsp)
     269:	00 
     26a:	45 89 f1             	mov    %r14d,%r9d
     26d:	4d 89 e0             	mov    %r12,%r8
     270:	c7 04 24 01 00 00 00 	movl   $0x1,(%rsp)
     277:	b9 00 00 10 00       	mov    $0x100000,%ecx
     27c:	48 89 de             	mov    %rbx,%rsi
     27f:	4c 89 ef             	mov    %r13,%rdi
     282:	e8 00 00 00 00       	callq  287 <scif_readfrom+0x77>
				MAX_UNALIGNED_BUF_SIZE,
				roffset, flags, REMOTE_TO_LOCAL, false);
			if (err)
     287:	85 c0                	test   %eax,%eax
		" offset 0x%lx flags 0x%x\n", 
		epd, loffset, len, roffset, flags);

	if (is_unaligned(loffset, roffset)) {
		while(len > MAX_UNALIGNED_BUF_SIZE) {
			err = micscif_rma_copy(epd, loffset, NULL,
     289:	89 c2                	mov    %eax,%edx
				MAX_UNALIGNED_BUF_SIZE,
				roffset, flags, REMOTE_TO_LOCAL, false);
			if (err)
     28b:	75 45                	jne    2d2 <scif_readfrom+0xc2>
     28d:	48 81 c3 00 00 10 00 	add    $0x100000,%rbx
     294:	49 81 c4 00 00 10 00 	add    $0x100000,%r12
				goto readfrom_err;
			loffset += MAX_UNALIGNED_BUF_SIZE;
			roffset += MAX_UNALIGNED_BUF_SIZE;
			len -=MAX_UNALIGNED_BUF_SIZE;
     29b:	49 81 ef 00 00 10 00 	sub    $0x100000,%r15
	pr_debug("SCIFAPI readfrom: ep %p loffset 0x%lx len 0x%lx"
		" offset 0x%lx flags 0x%x\n", 
		epd, loffset, len, roffset, flags);

	if (is_unaligned(loffset, roffset)) {
		while(len > MAX_UNALIGNED_BUF_SIZE) {
     2a2:	49 81 ff 00 00 10 00 	cmp    $0x100000,%r15
     2a9:	77 b5                	ja     260 <scif_readfrom+0x50>
			loffset += MAX_UNALIGNED_BUF_SIZE;
			roffset += MAX_UNALIGNED_BUF_SIZE;
			len -=MAX_UNALIGNED_BUF_SIZE;
		}
	}
	err = micscif_rma_copy(epd, loffset, NULL, len,
     2ab:	31 d2                	xor    %edx,%edx
     2ad:	c7 44 24 08 01 00 00 	movl   $0x1,0x8(%rsp)
     2b4:	00 
     2b5:	45 89 f1             	mov    %r14d,%r9d
     2b8:	4d 89 e0             	mov    %r12,%r8
     2bb:	c7 04 24 01 00 00 00 	movl   $0x1,(%rsp)
     2c2:	4c 89 f9             	mov    %r15,%rcx
     2c5:	48 89 de             	mov    %rbx,%rsi
     2c8:	4c 89 ef             	mov    %r13,%rdi
     2cb:	e8 00 00 00 00       	callq  2d0 <scif_readfrom+0xc0>
     2d0:	89 c2                	mov    %eax,%edx
 * to synchronize calling this API with get_kref_count.
 */
static __always_inline void
put_kref_count(scif_epd_t epd)
{
	kref_put(&(epd->ref_count), scif_ref_rel);
     2d2:	48 8b 7d c8          	mov    -0x38(%rbp),%rdi
     2d6:	48 c7 c6 00 00 00 00 	mov    $0x0,%rsi
     2dd:	89 55 c4             	mov    %edx,-0x3c(%rbp)
     2e0:	e8 00 00 00 00       	callq  2e5 <scif_readfrom+0xd5>
	int ret;
	get_kref_count(epd);
	ret = __scif_readfrom(epd, loffset, len, roffset, flags);
	put_kref_count(epd);
	return ret;
}
     2e5:	8b 55 c4             	mov    -0x3c(%rbp),%edx
     2e8:	48 83 c4 28          	add    $0x28,%rsp
     2ec:	5b                   	pop    %rbx
     2ed:	41 5c                	pop    %r12
     2ef:	41 5d                	pop    %r13
     2f1:	89 d0                	mov    %edx,%eax
     2f3:	41 5e                	pop    %r14
     2f5:	41 5f                	pop    %r15
     2f7:	5d                   	pop    %rbp
     2f8:	c3                   	retq   
     2f9:	0f 1f 80 00 00 00 00 	nopl   0x0(%rax)

0000000000000300 <scif_writeto>:
 *	else an apt error is returned as documented in scif.h.
 *
 */
int scif_writeto(scif_epd_t epd, off_t loffset, size_t len,
				off_t roffset, int flags)
{
     300:	55                   	push   %rbp
     301:	48 89 e5             	mov    %rsp,%rbp
     304:	41 57                	push   %r15
     306:	41 56                	push   %r14
     308:	41 55                	push   %r13
     30a:	41 54                	push   %r12
     30c:	53                   	push   %rbx
     30d:	48 83 ec 28          	sub    $0x28,%rsp
     311:	e8 00 00 00 00       	callq  316 <scif_writeto+0x16>
 * to synchronize calling this API with put_kref_count.
 */
static __always_inline void
get_kref_count(scif_epd_t epd)
{
	kref_get(&(epd->ref_count));
     316:	48 8d 87 70 01 00 00 	lea    0x170(%rdi),%rax
     31d:	48 89 f3             	mov    %rsi,%rbx
     320:	49 89 cc             	mov    %rcx,%r12
     323:	49 89 fd             	mov    %rdi,%r13
     326:	48 89 c7             	mov    %rax,%rdi
     329:	49 89 d7             	mov    %rdx,%r15
     32c:	48 89 45 c8          	mov    %rax,-0x38(%rbp)
     330:	45 89 c6             	mov    %r8d,%r14d
     333:	e8 00 00 00 00       	callq  338 <scif_writeto+0x38>
#endif

static __always_inline
bool is_unaligned(off_t src_offset, off_t dst_offset)
{
        src_offset = src_offset & (L1_CACHE_BYTES - 1);
     338:	48 89 da             	mov    %rbx,%rdx
        dst_offset = dst_offset & (L1_CACHE_BYTES - 1);
     33b:	4c 89 e0             	mov    %r12,%rax
#endif

static __always_inline
bool is_unaligned(off_t src_offset, off_t dst_offset)
{
        src_offset = src_offset & (L1_CACHE_BYTES - 1);
     33e:	83 e2 3f             	and    $0x3f,%edx
        dst_offset = dst_offset & (L1_CACHE_BYTES - 1);
     341:	83 e0 3f             	and    $0x3f,%eax
        if (src_offset == dst_offset)
     344:	48 39 c2             	cmp    %rax,%rdx
     347:	75 49                	jne    392 <scif_writeto+0x92>
     349:	eb 50                	jmp    39b <scif_writeto+0x9b>
     34b:	0f 1f 44 00 00       	nopl   0x0(%rax,%rax,1)
		" roffset 0x%lx flags 0x%x\n", 
		epd, loffset, len, roffset, flags);

	if (is_unaligned(loffset, roffset)) {
		while(len > MAX_UNALIGNED_BUF_SIZE) {
			err = micscif_rma_copy(epd, loffset, NULL,
     350:	31 d2                	xor    %edx,%edx
     352:	c7 44 24 08 00 00 00 	movl   $0x0,0x8(%rsp)
     359:	00 
     35a:	45 89 f1             	mov    %r14d,%r9d
     35d:	4d 89 e0             	mov    %r12,%r8
     360:	c7 04 24 00 00 00 00 	movl   $0x0,(%rsp)
     367:	b9 00 00 10 00       	mov    $0x100000,%ecx
     36c:	48 89 de             	mov    %rbx,%rsi
     36f:	4c 89 ef             	mov    %r13,%rdi
     372:	e8 00 00 00 00       	callq  377 <scif_writeto+0x77>
				MAX_UNALIGNED_BUF_SIZE,
				roffset, flags, LOCAL_TO_REMOTE, false);
			if (err)
     377:	85 c0                	test   %eax,%eax
		" roffset 0x%lx flags 0x%x\n", 
		epd, loffset, len, roffset, flags);

	if (is_unaligned(loffset, roffset)) {
		while(len > MAX_UNALIGNED_BUF_SIZE) {
			err = micscif_rma_copy(epd, loffset, NULL,
     379:	89 c2                	mov    %eax,%edx
				MAX_UNALIGNED_BUF_SIZE,
				roffset, flags, LOCAL_TO_REMOTE, false);
			if (err)
     37b:	75 45                	jne    3c2 <scif_writeto+0xc2>
     37d:	48 81 c3 00 00 10 00 	add    $0x100000,%rbx
     384:	49 81 c4 00 00 10 00 	add    $0x100000,%r12
				goto writeto_err;
			loffset += MAX_UNALIGNED_BUF_SIZE;
			roffset += MAX_UNALIGNED_BUF_SIZE;
			len -= MAX_UNALIGNED_BUF_SIZE;
     38b:	49 81 ef 00 00 10 00 	sub    $0x100000,%r15
	pr_debug("SCIFAPI writeto: ep %p loffset 0x%lx len 0x%lx"
		" roffset 0x%lx flags 0x%x\n", 
		epd, loffset, len, roffset, flags);

	if (is_unaligned(loffset, roffset)) {
		while(len > MAX_UNALIGNED_BUF_SIZE) {
     392:	49 81 ff 00 00 10 00 	cmp    $0x100000,%r15
     399:	77 b5                	ja     350 <scif_writeto+0x50>
			loffset += MAX_UNALIGNED_BUF_SIZE;
			roffset += MAX_UNALIGNED_BUF_SIZE;
			len -= MAX_UNALIGNED_BUF_SIZE;
		}
	}
	err = micscif_rma_copy(epd, loffset, NULL, len,
     39b:	31 d2                	xor    %edx,%edx
     39d:	c7 44 24 08 01 00 00 	movl   $0x1,0x8(%rsp)
     3a4:	00 
     3a5:	45 89 f1             	mov    %r14d,%r9d
     3a8:	4d 89 e0             	mov    %r12,%r8
     3ab:	c7 04 24 00 00 00 00 	movl   $0x0,(%rsp)
     3b2:	4c 89 f9             	mov    %r15,%rcx
     3b5:	48 89 de             	mov    %rbx,%rsi
     3b8:	4c 89 ef             	mov    %r13,%rdi
     3bb:	e8 00 00 00 00       	callq  3c0 <scif_writeto+0xc0>
     3c0:	89 c2                	mov    %eax,%edx
 * to synchronize calling this API with get_kref_count.
 */
static __always_inline void
put_kref_count(scif_epd_t epd)
{
	kref_put(&(epd->ref_count), scif_ref_rel);
     3c2:	48 8b 7d c8          	mov    -0x38(%rbp),%rdi
     3c6:	48 c7 c6 00 00 00 00 	mov    $0x0,%rsi
     3cd:	89 55 c4             	mov    %edx,-0x3c(%rbp)
     3d0:	e8 00 00 00 00       	callq  3d5 <scif_writeto+0xd5>
	int ret;
	get_kref_count(epd);
	ret = __scif_writeto(epd, loffset, len, roffset, flags);
	put_kref_count(epd);
	return ret;
}
     3d5:	8b 55 c4             	mov    -0x3c(%rbp),%edx
     3d8:	48 83 c4 28          	add    $0x28,%rsp
     3dc:	5b                   	pop    %rbx
     3dd:	41 5c                	pop    %r12
     3df:	41 5d                	pop    %r13
     3e1:	89 d0                	mov    %edx,%eax
     3e3:	41 5e                	pop    %r14
     3e5:	41 5f                	pop    %r15
     3e7:	5d                   	pop    %rbp
     3e8:	c3                   	retq   
     3e9:	0f 1f 80 00 00 00 00 	nopl   0x0(%rax)

00000000000003f0 <scif_unpin_pages>:
 * Upon successful completion, scif_unpin_pages() returns 0;
 * else an apt error is returned as documented in scif.h
 */
int
scif_unpin_pages(scif_pinned_pages_t pinned_pages)
{
     3f0:	55                   	push   %rbp
     3f1:	48 89 e5             	mov    %rsp,%rbp
     3f4:	e8 00 00 00 00       	callq  3f9 <scif_unpin_pages+0x9>
	int err = 0, ret;

	if (!pinned_pages || SCIFEP_MAGIC != pinned_pages->magic)
     3f9:	48 85 ff             	test   %rdi,%rdi
     3fc:	74 42                	je     440 <scif_unpin_pages+0x50>
     3fe:	48 b8 1f 5c 00 00 00 	movabs $0x5c1f000000005c1f,%rax
     405:	00 1f 5c 
     408:	48 39 47 18          	cmp    %rax,0x18(%rdi)
     40c:	75 32                	jne    440 <scif_unpin_pages+0x50>
		return -EINVAL;

	ret = atomic_sub_return((int32_t)pinned_pages->nr_pages, 
     40e:	48 8b 17             	mov    (%rdi),%rdx
 *
 * Atomically subtracts @i from @v and returns @v - @i
 */
static inline int atomic_sub_return(int i, atomic_t *v)
{
	return atomic_add_return(-i, v);
     411:	89 d0                	mov    %edx,%eax
     413:	f7 d8                	neg    %eax
	unsigned long flags;
	if (unlikely(boot_cpu_data.x86 <= 3))
		goto no_xadd;
#endif
	/* Modern 486+ processor */
	return i + xadd(&v->counter, i);
     415:	f0 0f c1 47 10       	lock xadd %eax,0x10(%rdi)
			&pinned_pages->ref_count);
	BUG_ON(ret < 0);
     41a:	39 d0                	cmp    %edx,%eax
     41c:	78 32                	js     450 <scif_unpin_pages+0x60>
 * else an apt error is returned as documented in scif.h
 */
int
scif_unpin_pages(scif_pinned_pages_t pinned_pages)
{
	int err = 0, ret;
     41e:	b8 00 00 00 00       	mov    $0x0,%eax
	 * Destroy the window if the ref count for this set of pinned
	 * pages has dropped to zero. If it is positive then there is
	 * a valid registered window which is backed by these pages and
	 * it will be destroyed once all such windows are unregistered.
	 */
	if (!ret)
     423:	74 0b                	je     430 <scif_unpin_pages+0x40>
		err = micscif_destroy_pinned_pages(pinned_pages);

	return err;
}
     425:	5d                   	pop    %rbp
     426:	c3                   	retq   
     427:	66 0f 1f 84 00 00 00 	nopw   0x0(%rax,%rax,1)
     42e:	00 00 
	 * pages has dropped to zero. If it is positive then there is
	 * a valid registered window which is backed by these pages and
	 * it will be destroyed once all such windows are unregistered.
	 */
	if (!ret)
		err = micscif_destroy_pinned_pages(pinned_pages);
     430:	e8 00 00 00 00       	callq  435 <scif_unpin_pages+0x45>

	return err;
}
     435:	5d                   	pop    %rbp
     436:	c3                   	retq   
     437:	66 0f 1f 84 00 00 00 	nopw   0x0(%rax,%rax,1)
     43e:	00 00 
scif_unpin_pages(scif_pinned_pages_t pinned_pages)
{
	int err = 0, ret;

	if (!pinned_pages || SCIFEP_MAGIC != pinned_pages->magic)
		return -EINVAL;
     440:	b8 ea ff ff ff       	mov    $0xffffffea,%eax
	 */
	if (!ret)
		err = micscif_destroy_pinned_pages(pinned_pages);

	return err;
}
     445:	5d                   	pop    %rbp
     446:	c3                   	retq   
     447:	66 0f 1f 84 00 00 00 	nopw   0x0(%rax,%rax,1)
     44e:	00 00 
	if (!pinned_pages || SCIFEP_MAGIC != pinned_pages->magic)
		return -EINVAL;

	ret = atomic_sub_return((int32_t)pinned_pages->nr_pages, 
			&pinned_pages->ref_count);
	BUG_ON(ret < 0);
     450:	0f 0b                	ud2    
     452:	66 66 66 66 66 2e 0f 	data32 data32 data32 data32 nopw %cs:0x0(%rax,%rax,1)
     459:	1f 84 00 00 00 00 00 

0000000000000460 <atomic_long_add_unless.constprop.15>:
	atomic64_t *v = (atomic64_t *)l;

	return (long)atomic64_dec_return(v);
}

static inline long atomic_long_add_unless(atomic_long_t *l, long a, long u)
     460:	55                   	push   %rbp
     461:	48 89 e5             	mov    %rsp,%rbp
     464:	e8 00 00 00 00       	callq  469 <atomic_long_add_unless.constprop.15+0x9>
static inline int atomic64_add_unless(atomic64_t *v, long a, long u)
{
	long c, old;
	c = atomic64_read(v);
	for (;;) {
		if (unlikely(c == (u)))
     469:	48 be 00 00 00 00 00 	movabs $0x8000000000000000,%rsi
     470:	00 00 80 
 * Atomically reads the value of @v.
 * Doesn't imply a read memory barrier.
 */
static inline long atomic64_read(const atomic64_t *v)
{
	return (*(volatile long *)&(v)->counter);
     473:	48 8b 0f             	mov    (%rdi),%rcx
static inline int atomic64_add_unless(atomic64_t *v, long a, long u)
{
	long c, old;
	c = atomic64_read(v);
	for (;;) {
		if (unlikely(c == (u)))
     476:	48 39 f1             	cmp    %rsi,%rcx
     479:	74 45                	je     4c0 <atomic_long_add_unless.constprop.15+0x60>
			break;
		old = atomic64_cmpxchg((v), c, c + (a));
     47b:	48 8d 51 01          	lea    0x1(%rcx),%rdx
#define atomic64_inc_return(v)  (atomic64_add_return(1, (v)))
#define atomic64_dec_return(v)  (atomic64_sub_return(1, (v)))

static inline long atomic64_cmpxchg(atomic64_t *v, long old, long new)
{
	return cmpxchg(&v->counter, old, new);
     47f:	48 89 c8             	mov    %rcx,%rax
     482:	f0 48 0f b1 17       	lock cmpxchg %rdx,(%rdi)
     487:	48 89 c2             	mov    %rax,%rdx
	c = atomic64_read(v);
	for (;;) {
		if (unlikely(c == (u)))
			break;
		old = atomic64_cmpxchg((v), c, c + (a));
		if (likely(old == c))
     48a:	b8 01 00 00 00       	mov    $0x1,%eax
     48f:	48 39 d1             	cmp    %rdx,%rcx
     492:	75 0c                	jne    4a0 <atomic_long_add_unless.constprop.15+0x40>
{
	atomic64_t *v = (atomic64_t *)l;

	return (long)atomic64_add_unless(v, a, u);
}
     494:	5d                   	pop    %rbp
     495:	c3                   	retq   
     496:	48 89 c2             	mov    %rax,%rdx
     499:	0f 1f 80 00 00 00 00 	nopl   0x0(%rax)
static inline int atomic64_add_unless(atomic64_t *v, long a, long u)
{
	long c, old;
	c = atomic64_read(v);
	for (;;) {
		if (unlikely(c == (u)))
     4a0:	48 39 f2             	cmp    %rsi,%rdx
     4a3:	74 1b                	je     4c0 <atomic_long_add_unless.constprop.15+0x60>
			break;
		old = atomic64_cmpxchg((v), c, c + (a));
     4a5:	48 8d 4a 01          	lea    0x1(%rdx),%rcx
#define atomic64_inc_return(v)  (atomic64_add_return(1, (v)))
#define atomic64_dec_return(v)  (atomic64_sub_return(1, (v)))

static inline long atomic64_cmpxchg(atomic64_t *v, long old, long new)
{
	return cmpxchg(&v->counter, old, new);
     4a9:	48 89 d0             	mov    %rdx,%rax
     4ac:	f0 48 0f b1 0f       	lock cmpxchg %rcx,(%rdi)
	c = atomic64_read(v);
	for (;;) {
		if (unlikely(c == (u)))
			break;
		old = atomic64_cmpxchg((v), c, c + (a));
		if (likely(old == c))
     4b1:	48 39 d0             	cmp    %rdx,%rax
     4b4:	75 e0                	jne    496 <atomic_long_add_unless.constprop.15+0x36>
     4b6:	b8 01 00 00 00       	mov    $0x1,%eax
     4bb:	5d                   	pop    %rbp
     4bc:	c3                   	retq   
     4bd:	0f 1f 00             	nopl   (%rax)
     4c0:	31 c0                	xor    %eax,%eax
     4c2:	5d                   	pop    %rbp
     4c3:	c3                   	retq   
     4c4:	66 66 66 2e 0f 1f 84 	data32 data32 nopw %cs:0x0(%rax,%rax,1)
     4cb:	00 00 00 00 00 

00000000000004d0 <atomic_long_sub_return.constprop.16>:
	atomic64_t *v = (atomic64_t *)l;

	return (long)atomic64_add_return(i, v);
}

static inline long atomic_long_sub_return(long i, atomic_long_t *l)
     4d0:	55                   	push   %rbp
     4d1:	48 89 e5             	mov    %rsp,%rbp
     4d4:	e8 00 00 00 00       	callq  4d9 <atomic_long_sub_return.constprop.16+0x9>
 *
 * Atomically adds @i to @v and returns @i + @v
 */
static inline long atomic64_add_return(long i, atomic64_t *v)
{
	return i + xadd(&v->counter, i);
     4d9:	48 c7 c0 ff ff ff ff 	mov    $0xffffffffffffffff,%rax
     4e0:	f0 48 0f c1 07       	lock xadd %rax,(%rdi)
     4e5:	48 83 e8 01          	sub    $0x1,%rax
{
	atomic64_t *v = (atomic64_t *)l;

	return (long)atomic64_sub_return(i, v);
}
     4e9:	5d                   	pop    %rbp
     4ea:	c3                   	retq   
     4eb:	0f 1f 44 00 00       	nopl   0x0(%rax,%rax,1)

00000000000004f0 <atomic_long_add.constprop.17>:
	atomic64_t *v = (atomic64_t *)l;

	atomic64_dec(v);
}

static inline void atomic_long_add(long i, atomic_long_t *l)
     4f0:	55                   	push   %rbp
     4f1:	48 89 e5             	mov    %rsp,%rbp
     4f4:	e8 00 00 00 00       	callq  4f9 <atomic_long_add.constprop.17+0x9>
 *
 * Atomically adds @i to @v.
 */
static inline void atomic64_add(long i, atomic64_t *v)
{
	asm volatile(LOCK_PREFIX "addq %1,%0"
     4f9:	f0 48 83 07 01       	lock addq $0x1,(%rdi)
{
	atomic64_t *v = (atomic64_t *)l;

	atomic64_add(i, v);
}
     4fe:	5d                   	pop    %rbp
     4ff:	c3                   	retq   

0000000000000500 <scif_munmap>:
 * is opened and closed exactly once by each process that uses it.
 *
 * Return Values: None.
 */
void scif_munmap(struct vm_area_struct *vma)
{
     500:	55                   	push   %rbp
     501:	48 89 e5             	mov    %rsp,%rbp
     504:	41 57                	push   %r15
     506:	41 56                	push   %r14
     508:	41 55                	push   %r13
     50a:	41 54                	push   %r12
     50c:	53                   	push   %rbx
     50d:	48 81 ec c8 00 00 00 	sub    $0xc8,%rsp
     514:	e8 00 00 00 00       	callq  519 <scif_munmap+0x19>
	struct endpt *ep;
	struct vma_pvt *vmapvt = ((vma)->vm_private_data);
     519:	4c 8b af a0 00 00 00 	mov    0xa0(%rdi),%r13
	int nr_pages = (int)( (((vma)->vm_end) - ((vma)->vm_start)) >> PAGE_SHIFT );
     520:	48 8b 5f 10          	mov    0x10(%rdi),%rbx
     524:	48 2b 5f 08          	sub    0x8(%rdi),%rbx
	uint64_t offset;
	struct micscif_rma_req req;
	struct reg_range_t *window = NULL;
     528:	48 c7 85 40 ff ff ff 	movq   $0x0,-0xc0(%rbp)
     52f:	00 00 00 00 
 * is opened and closed exactly once by each process that uses it.
 *
 * Return Values: None.
 */
void scif_munmap(struct vm_area_struct *vma)
{
     533:	49 89 ff             	mov    %rdi,%r15
	uint64_t offset;
	struct micscif_rma_req req;
	struct reg_range_t *window = NULL;
	int err;

	might_sleep();
     536:	e8 00 00 00 00       	callq  53b <scif_munmap+0x3b>
 */
void scif_munmap(struct vm_area_struct *vma)
{
	struct endpt *ep;
	struct vma_pvt *vmapvt = ((vma)->vm_private_data);
	int nr_pages = (int)( (((vma)->vm_end) - ((vma)->vm_start)) >> PAGE_SHIFT );
     53b:	48 c1 eb 0c          	shr    $0xc,%rbx

	might_sleep();
	pr_debug("SCIFAPI munmap: vma_start 0x%lx vma_end 0x%lx\n", 
			((vma)->vm_start), ((vma)->vm_end));
	/* used to be a BUG_ON(), prefer keeping the kernel alive */
	if (!vmapvt) {
     53f:	4d 85 ed             	test   %r13,%r13
     542:	0f 84 2c 03 00 00    	je     874 <scif_munmap+0x374>
			((vma)->vm_start), ((vma)->vm_end));
		return;
	}

	ep = vmapvt->ep;
	offset = vmapvt->valid_offset ? vmapvt->offset :
     548:	41 80 7d 10 00       	cmpb   $0x0,0x10(%r13)
		printk(KERN_ERR "SCIFAPI munmap: vma_start 0x%lx vma_end 0x%lx\n", 
			((vma)->vm_start), ((vma)->vm_end));
		return;
	}

	ep = vmapvt->ep;
     54d:	4d 8b 65 00          	mov    0x0(%r13),%r12
	offset = vmapvt->valid_offset ? vmapvt->offset :
     551:	0f 85 29 01 00 00    	jne    680 <scif_munmap+0x180>
     557:	4d 8b 87 90 00 00 00 	mov    0x90(%r15),%r8
     55e:	49 c1 e0 0c          	shl    $0xc,%r8
		((vma)->vm_pgoff) << PAGE_SHIFT;
	pr_debug("SCIFAPI munmap: ep %p %s  nr_pages 0x%x offset 0x%llx\n", 
     562:	41 8b 04 24          	mov    (%r12),%eax
		ep, scif_ep_states[ep->state], nr_pages, offset);

	req.out_window = &window;
     566:	48 8d 85 40 ff ff ff 	lea    -0xc0(%rbp),%rax
	req.offset = offset;
     56d:	4c 89 45 a8          	mov    %r8,-0x58(%rbp)
	offset = vmapvt->valid_offset ? vmapvt->offset :
		((vma)->vm_pgoff) << PAGE_SHIFT;
	pr_debug("SCIFAPI munmap: ep %p %s  nr_pages 0x%x offset 0x%llx\n", 
		ep, scif_ep_states[ep->state], nr_pages, offset);

	req.out_window = &window;
     571:	48 89 45 a0          	mov    %rax,-0x60(%rbp)
	req.offset = offset;
	req.nr_bytes = ((vma)->vm_end) - ((vma)->vm_start);
     575:	49 8b 47 10          	mov    0x10(%r15),%rax
     579:	49 2b 47 08          	sub    0x8(%r15),%rax
	req.prot = ((vma)->vm_flags) & (VM_READ | VM_WRITE);
	req.type = WINDOW_PARTIAL;
     57d:	c7 45 bc 00 00 00 00 	movl   $0x0,-0x44(%rbp)
	req.head = &ep->rma_info.remote_reg_list;

	micscif_inc_node_refcnt(ep->remote_dev, 1);
     584:	4d 8b b4 24 48 01 00 	mov    0x148(%r12),%r14
     58b:	00 
	pr_debug("SCIFAPI munmap: ep %p %s  nr_pages 0x%x offset 0x%llx\n", 
		ep, scif_ep_states[ep->state], nr_pages, offset);

	req.out_window = &window;
	req.offset = offset;
	req.nr_bytes = ((vma)->vm_end) - ((vma)->vm_start);
     58c:	48 89 45 b0          	mov    %rax,-0x50(%rbp)
	req.prot = ((vma)->vm_flags) & (VM_READ | VM_WRITE);
     590:	41 8b 47 30          	mov    0x30(%r15),%eax
     594:	83 e0 03             	and    $0x3,%eax
 */
static __always_inline void
micscif_inc_node_refcnt(struct micscif_dev *dev, long cnt)
{
#ifdef SCIF_ENABLE_PM
	if (unlikely(dev && !atomic_long_add_unless(&dev->scif_ref_cnt, 
     597:	4d 85 f6             	test   %r14,%r14
     59a:	89 45 b8             	mov    %eax,-0x48(%rbp)
	req.type = WINDOW_PARTIAL;
	req.head = &ep->rma_info.remote_reg_list;
     59d:	49 8d 44 24 38       	lea    0x38(%r12),%rax
     5a2:	48 89 45 c0          	mov    %rax,-0x40(%rbp)
     5a6:	0f 85 e4 00 00 00    	jne    690 <scif_munmap+0x190>

	micscif_inc_node_refcnt(ep->remote_dev, 1);
	mutex_lock(&ep->rma_info.rma_lock);
     5ac:	4d 8d b4 24 80 00 00 	lea    0x80(%r12),%r14
     5b3:	00 
     5b4:	4c 89 85 38 ff ff ff 	mov    %r8,-0xc8(%rbp)
     5bb:	4c 89 f7             	mov    %r14,%rdi
     5be:	e8 00 00 00 00       	callq  5c3 <scif_munmap+0xc3>

	if ((err = micscif_query_window(&req)))
     5c3:	48 8d 7d a0          	lea    -0x60(%rbp),%rdi
     5c7:	e8 00 00 00 00       	callq  5cc <scif_munmap+0xcc>
     5cc:	4c 8b 85 38 ff ff ff 	mov    -0xc8(%rbp),%r8
     5d3:	85 c0                	test   %eax,%eax
     5d5:	0f 85 c5 02 00 00    	jne    8a0 <scif_munmap+0x3a0>
		printk(KERN_ERR "%s %d err %d\n", __func__, __LINE__, err);
	else
		micscif_rma_list_munmap(window, offset, nr_pages);
     5db:	48 8b bd 40 ff ff ff 	mov    -0xc0(%rbp),%rdi
     5e2:	89 da                	mov    %ebx,%edx
     5e4:	4c 89 c6             	mov    %r8,%rsi
     5e7:	e8 00 00 00 00       	callq  5ec <scif_munmap+0xec>

	mutex_unlock(&ep->rma_info.rma_lock);
     5ec:	4c 89 f7             	mov    %r14,%rdi
     5ef:	e8 00 00 00 00       	callq  5f4 <scif_munmap+0xf4>
	micscif_dec_node_refcnt(ep->remote_dev, 1);
     5f4:	4d 8b b4 24 48 01 00 	mov    0x148(%r12),%r14
     5fb:	00 
 */
static __always_inline void
micscif_dec_node_refcnt(struct micscif_dev *dev, long cnt)
{
#ifdef SCIF_ENABLE_PM
	if (dev) {
     5fc:	4d 85 f6             	test   %r14,%r14
     5ff:	74 29                	je     62a <scif_munmap+0x12a>
		if (unlikely((atomic_long_sub_return(cnt, 
     601:	4d 8d 96 88 01 00 00 	lea    0x188(%r14),%r10
 *
 * Atomically adds @i to @v and returns @i + @v
 */
static inline long atomic64_add_return(long i, atomic64_t *v)
{
	return i + xadd(&v->counter, i);
     608:	48 c7 c0 ff ff ff ff 	mov    $0xffffffffffffffff,%rax
     60f:	f0 49 0f c1 86 88 01 	lock xadd %rax,0x188(%r14)
     616:	00 00 
     618:	48 83 e8 01          	sub    $0x1,%rax
     61c:	0f 88 ce 00 00 00    	js     6f0 <scif_munmap+0x1f0>
     622:	4d 8b b4 24 48 01 00 	mov    0x148(%r12),%r14
     629:	00 

	micscif_destroy_node_dep(ep->remote_dev, nr_pages);
     62a:	89 de                	mov    %ebx,%esi
     62c:	4c 89 f7             	mov    %r14,%rdi
     62f:	e8 00 00 00 00       	callq  634 <scif_munmap+0x134>
	 * The kernel probably zeroes these out but we still want
	 * to clean up our own mess just in case.
	 */
	vma->vm_ops = NULL;
	((vma)->vm_private_data) = NULL;
	kref_put(&vmapvt->ref, vma_pvt_release);
     634:	49 8d 7d 14          	lea    0x14(%r13),%rdi
     638:	48 c7 c6 00 00 00 00 	mov    $0x0,%rsi

	/*
	 * The kernel probably zeroes these out but we still want
	 * to clean up our own mess just in case.
	 */
	vma->vm_ops = NULL;
     63f:	49 c7 87 88 00 00 00 	movq   $0x0,0x88(%r15)
     646:	00 00 00 00 
	((vma)->vm_private_data) = NULL;
     64a:	49 c7 87 a0 00 00 00 	movq   $0x0,0xa0(%r15)
     651:	00 00 00 00 
	kref_put(&vmapvt->ref, vma_pvt_release);
     655:	e8 00 00 00 00       	callq  65a <scif_munmap+0x15a>
	micscif_rma_put_task(ep, nr_pages);
     65a:	89 de                	mov    %ebx,%esi
     65c:	4c 89 e7             	mov    %r12,%rdi
     65f:	e8 00 00 00 00       	callq  664 <scif_munmap+0x164>
}
     664:	48 81 c4 c8 00 00 00 	add    $0xc8,%rsp
     66b:	5b                   	pop    %rbx
     66c:	41 5c                	pop    %r12
     66e:	41 5d                	pop    %r13
     670:	41 5e                	pop    %r14
     672:	41 5f                	pop    %r15
     674:	5d                   	pop    %rbp
     675:	c3                   	retq   
     676:	66 2e 0f 1f 84 00 00 	nopw   %cs:0x0(%rax,%rax,1)
     67d:	00 00 00 
			((vma)->vm_start), ((vma)->vm_end));
		return;
	}

	ep = vmapvt->ep;
	offset = vmapvt->valid_offset ? vmapvt->offset :
     680:	4d 8b 45 08          	mov    0x8(%r13),%r8
     684:	e9 d9 fe ff ff       	jmpq   562 <scif_munmap+0x62>
     689:	0f 1f 80 00 00 00 00 	nopl   0x0(%rax)
 * Atomically reads the value of @v.
 * Doesn't imply a read memory barrier.
 */
static inline long atomic64_read(const atomic64_t *v)
{
	return (*(volatile long *)&(v)->counter);
     690:	49 8b 8e 88 01 00 00 	mov    0x188(%r14),%rcx
 */
static __always_inline void
micscif_inc_node_refcnt(struct micscif_dev *dev, long cnt)
{
#ifdef SCIF_ENABLE_PM
	if (unlikely(dev && !atomic_long_add_unless(&dev->scif_ref_cnt, 
     697:	49 8d be 88 01 00 00 	lea    0x188(%r14),%rdi
static inline int atomic64_add_unless(atomic64_t *v, long a, long u)
{
	long c, old;
	c = atomic64_read(v);
	for (;;) {
		if (unlikely(c == (u)))
     69e:	48 be 00 00 00 00 00 	movabs $0x8000000000000000,%rsi
     6a5:	00 00 80 
     6a8:	48 39 f1             	cmp    %rsi,%rcx
     6ab:	0f 84 d7 00 00 00    	je     788 <scif_munmap+0x288>
			break;
		old = atomic64_cmpxchg((v), c, c + (a));
     6b1:	48 8d 51 01          	lea    0x1(%rcx),%rdx
#define atomic64_inc_return(v)  (atomic64_add_return(1, (v)))
#define atomic64_dec_return(v)  (atomic64_sub_return(1, (v)))

static inline long atomic64_cmpxchg(atomic64_t *v, long old, long new)
{
	return cmpxchg(&v->counter, old, new);
     6b5:	48 89 c8             	mov    %rcx,%rax
     6b8:	f0 49 0f b1 96 88 01 	lock cmpxchg %rdx,0x188(%r14)
     6bf:	00 00 
	c = atomic64_read(v);
	for (;;) {
		if (unlikely(c == (u)))
			break;
		old = atomic64_cmpxchg((v), c, c + (a));
		if (likely(old == c))
     6c1:	48 39 c8             	cmp    %rcx,%rax
#define atomic64_inc_return(v)  (atomic64_add_return(1, (v)))
#define atomic64_dec_return(v)  (atomic64_sub_return(1, (v)))

static inline long atomic64_cmpxchg(atomic64_t *v, long old, long new)
{
	return cmpxchg(&v->counter, old, new);
     6c4:	48 89 c2             	mov    %rax,%rdx
	c = atomic64_read(v);
	for (;;) {
		if (unlikely(c == (u)))
			break;
		old = atomic64_cmpxchg((v), c, c + (a));
		if (likely(old == c))
     6c7:	0f 84 df fe ff ff    	je     5ac <scif_munmap+0xac>
static inline int atomic64_add_unless(atomic64_t *v, long a, long u)
{
	long c, old;
	c = atomic64_read(v);
	for (;;) {
		if (unlikely(c == (u)))
     6cd:	48 39 f2             	cmp    %rsi,%rdx
     6d0:	0f 84 b2 00 00 00    	je     788 <scif_munmap+0x288>
			break;
		old = atomic64_cmpxchg((v), c, c + (a));
     6d6:	48 8d 4a 01          	lea    0x1(%rdx),%rcx
#define atomic64_inc_return(v)  (atomic64_add_return(1, (v)))
#define atomic64_dec_return(v)  (atomic64_sub_return(1, (v)))

static inline long atomic64_cmpxchg(atomic64_t *v, long old, long new)
{
	return cmpxchg(&v->counter, old, new);
     6da:	48 89 d0             	mov    %rdx,%rax
     6dd:	f0 48 0f b1 0f       	lock cmpxchg %rcx,(%rdi)
	c = atomic64_read(v);
	for (;;) {
		if (unlikely(c == (u)))
			break;
		old = atomic64_cmpxchg((v), c, c + (a));
		if (likely(old == c))
     6e2:	48 39 c2             	cmp    %rax,%rdx
     6e5:	0f 84 c1 fe ff ff    	je     5ac <scif_munmap+0xac>
     6eb:	48 89 c2             	mov    %rax,%rdx
     6ee:	eb dd                	jmp    6cd <scif_munmap+0x1cd>
{
#ifdef SCIF_ENABLE_PM
	if (dev) {
		if (unlikely((atomic_long_sub_return(cnt, 
			&dev->scif_ref_cnt)) < 0)) {
			printk(KERN_ERR "%s %d dec dev %p node %d ref %ld "
     6f0:	48 8b 45 08          	mov    0x8(%rbp),%rax
     6f4:	4c 89 f1             	mov    %r14,%rcx
     6f7:	ba a7 00 00 00       	mov    $0xa7,%edx
     6fc:	48 c7 c6 00 00 00 00 	mov    $0x0,%rsi
 * Atomically reads the value of @v.
 * Doesn't imply a read memory barrier.
 */
static inline long atomic64_read(const atomic64_t *v)
{
	return (*(volatile long *)&(v)->counter);
     703:	4d 8b 8e 88 01 00 00 	mov    0x188(%r14),%r9
     70a:	48 c7 c7 00 00 00 00 	mov    $0x0,%rdi
     711:	4c 89 95 38 ff ff ff 	mov    %r10,-0xc8(%rbp)
     718:	45 0f b7 06          	movzwl (%r14),%r8d
     71c:	48 89 04 24          	mov    %rax,(%rsp)
     720:	31 c0                	xor    %eax,%eax
     722:	e8 00 00 00 00       	callq  727 <scif_munmap+0x227>
     727:	49 8b 8e 88 01 00 00 	mov    0x188(%r14),%rcx
static inline int atomic64_add_unless(atomic64_t *v, long a, long u)
{
	long c, old;
	c = atomic64_read(v);
	for (;;) {
		if (unlikely(c == (u)))
     72e:	48 be 00 00 00 00 00 	movabs $0x8000000000000000,%rsi
     735:	00 00 80 
     738:	4c 8b 95 38 ff ff ff 	mov    -0xc8(%rbp),%r10
     73f:	48 39 f1             	cmp    %rsi,%rcx
     742:	0f 84 da fe ff ff    	je     622 <scif_munmap+0x122>
			break;
		old = atomic64_cmpxchg((v), c, c + (a));
     748:	48 8d 51 01          	lea    0x1(%rcx),%rdx
#define atomic64_inc_return(v)  (atomic64_add_return(1, (v)))
#define atomic64_dec_return(v)  (atomic64_sub_return(1, (v)))

static inline long atomic64_cmpxchg(atomic64_t *v, long old, long new)
{
	return cmpxchg(&v->counter, old, new);
     74c:	48 89 c8             	mov    %rcx,%rax
     74f:	f0 49 0f b1 12       	lock cmpxchg %rdx,(%r10)
	c = atomic64_read(v);
	for (;;) {
		if (unlikely(c == (u)))
			break;
		old = atomic64_cmpxchg((v), c, c + (a));
		if (likely(old == c))
     754:	48 39 c1             	cmp    %rax,%rcx
#define atomic64_inc_return(v)  (atomic64_add_return(1, (v)))
#define atomic64_dec_return(v)  (atomic64_sub_return(1, (v)))

static inline long atomic64_cmpxchg(atomic64_t *v, long old, long new)
{
	return cmpxchg(&v->counter, old, new);
     757:	48 89 c2             	mov    %rax,%rdx
	c = atomic64_read(v);
	for (;;) {
		if (unlikely(c == (u)))
			break;
		old = atomic64_cmpxchg((v), c, c + (a));
		if (likely(old == c))
     75a:	0f 84 c2 fe ff ff    	je     622 <scif_munmap+0x122>
static inline int atomic64_add_unless(atomic64_t *v, long a, long u)
{
	long c, old;
	c = atomic64_read(v);
	for (;;) {
		if (unlikely(c == (u)))
     760:	48 39 f2             	cmp    %rsi,%rdx
     763:	0f 84 b9 fe ff ff    	je     622 <scif_munmap+0x122>
			break;
		old = atomic64_cmpxchg((v), c, c + (a));
     769:	48 8d 4a 01          	lea    0x1(%rdx),%rcx
#define atomic64_inc_return(v)  (atomic64_add_return(1, (v)))
#define atomic64_dec_return(v)  (atomic64_sub_return(1, (v)))

static inline long atomic64_cmpxchg(atomic64_t *v, long old, long new)
{
	return cmpxchg(&v->counter, old, new);
     76d:	48 89 d0             	mov    %rdx,%rax
     770:	f0 49 0f b1 0a       	lock cmpxchg %rcx,(%r10)
	c = atomic64_read(v);
	for (;;) {
		if (unlikely(c == (u)))
			break;
		old = atomic64_cmpxchg((v), c, c + (a));
		if (likely(old == c))
     775:	48 39 c2             	cmp    %rax,%rdx
     778:	0f 84 a4 fe ff ff    	je     622 <scif_munmap+0x122>
     77e:	48 89 c2             	mov    %rax,%rdx
     781:	eb dd                	jmp    760 <scif_munmap+0x260>
     783:	0f 1f 44 00 00       	nopl   0x0(%rax,%rax,1)
		cnt, SCIF_NODE_IDLE))) {
		/*
		 * This code path would not be entered unless the remote
		 * SCIF device has actually been put to sleep by the host.
		 */
		mutex_lock(&dev->sd_lock);
     788:	49 8d 86 68 01 00 00 	lea    0x168(%r14),%rax
     78f:	4c 89 85 38 ff ff ff 	mov    %r8,-0xc8(%rbp)
     796:	48 89 c7             	mov    %rax,%rdi
     799:	48 89 85 30 ff ff ff 	mov    %rax,-0xd0(%rbp)
     7a0:	e8 00 00 00 00       	callq  7a5 <scif_munmap+0x2a5>
		if (SCIFDEV_STOPPED == dev->sd_state ||
     7a5:	41 8b 46 04          	mov    0x4(%r14),%eax
     7a9:	4c 8b 85 38 ff ff ff 	mov    -0xc8(%rbp),%r8
			SCIFDEV_STOPPING == dev->sd_state ||
     7b0:	8d 50 fc             	lea    -0x4(%rax),%edx
		/*
		 * This code path would not be entered unless the remote
		 * SCIF device has actually been put to sleep by the host.
		 */
		mutex_lock(&dev->sd_lock);
		if (SCIFDEV_STOPPED == dev->sd_state ||
     7b3:	83 fa 01             	cmp    $0x1,%edx
     7b6:	76 1a                	jbe    7d2 <scif_munmap+0x2d2>
     7b8:	83 f8 01             	cmp    $0x1,%eax
     7bb:	74 15                	je     7d2 <scif_munmap+0x2d2>
}

static __always_inline int constant_test_bit(unsigned int nr, const volatile unsigned long *addr)
{
	return ((1UL << (nr % BITS_PER_LONG)) &
		(addr[nr / BITS_PER_LONG])) != 0;
     7bd:	49 8b 86 88 01 00 00 	mov    0x188(%r14),%rax
			SCIFDEV_STOPPING == dev->sd_state ||
			SCIFDEV_INIT == dev->sd_state)
			goto bail_out;
		if (test_bit(SCIF_NODE_MAGIC_BIT, 
     7c4:	48 85 c0             	test   %rax,%rax
     7c7:	78 28                	js     7f1 <scif_munmap+0x2f1>
 *
 * Atomically adds @i to @v.
 */
static inline void atomic64_add(long i, atomic64_t *v)
{
	asm volatile(LOCK_PREFIX "addq %1,%0"
     7c9:	f0 49 83 86 88 01 00 	lock addq $0x1,0x188(%r14)
     7d0:	00 01 
			}
		}
		/* The ref count was not added if the node was idle. */
		atomic_long_add(cnt, &dev->scif_ref_cnt);
bail_out:
		mutex_unlock(&dev->sd_lock);
     7d2:	48 8b bd 30 ff ff ff 	mov    -0xd0(%rbp),%rdi
     7d9:	4c 89 85 38 ff ff ff 	mov    %r8,-0xc8(%rbp)
     7e0:	e8 00 00 00 00       	callq  7e5 <scif_munmap+0x2e5>
     7e5:	4c 8b 85 38 ff ff ff 	mov    -0xc8(%rbp),%r8
     7ec:	e9 bb fd ff ff       	jmpq   5ac <scif_munmap+0xac>
			/* Notify host that the remote node must be woken */
			struct nodemsg notif_msg;

			dev->sd_wait_status = OP_IN_PROGRESS;
			notif_msg.uop = SCIF_NODE_WAKE_UP;
			notif_msg.src.node = ms_info.mi_nodeid;
     7f1:	8b 05 00 00 00 00    	mov    0x0(%rip),%eax        # 7f7 <scif_munmap+0x2f7>
			notif_msg.dst.node = SCIF_HOST_NODE;
			notif_msg.payload[0] = dev->sd_node;
			/* No error handling for Host SCIF device */
			micscif_nodeqp_send(&scif_dev[SCIF_HOST_NODE],
     7f7:	31 d2                	xor    %edx,%edx
			&dev->scif_ref_cnt.counter)) {
			/* Notify host that the remote node must be woken */
			struct nodemsg notif_msg;

			dev->sd_wait_status = OP_IN_PROGRESS;
			notif_msg.uop = SCIF_NODE_WAKE_UP;
     7f9:	c7 85 7c ff ff ff 2e 	movl   $0x2e,-0x84(%rbp)
     800:	00 00 00 
			notif_msg.src.node = ms_info.mi_nodeid;
			notif_msg.dst.node = SCIF_HOST_NODE;
			notif_msg.payload[0] = dev->sd_node;
			/* No error handling for Host SCIF device */
			micscif_nodeqp_send(&scif_dev[SCIF_HOST_NODE],
     803:	48 c7 c7 00 00 00 00 	mov    $0x0,%rdi
     80a:	48 8d b5 74 ff ff ff 	lea    -0x8c(%rbp),%rsi
     811:	4c 89 85 38 ff ff ff 	mov    %r8,-0xc8(%rbp)
		if (test_bit(SCIF_NODE_MAGIC_BIT, 
			&dev->scif_ref_cnt.counter)) {
			/* Notify host that the remote node must be woken */
			struct nodemsg notif_msg;

			dev->sd_wait_status = OP_IN_PROGRESS;
     818:	49 c7 86 b0 01 00 00 	movq   $0x2,0x1b0(%r14)
     81f:	02 00 00 00 
			notif_msg.uop = SCIF_NODE_WAKE_UP;
			notif_msg.src.node = ms_info.mi_nodeid;
     823:	66 89 85 74 ff ff ff 	mov    %ax,-0x8c(%rbp)
			notif_msg.dst.node = SCIF_HOST_NODE;
     82a:	31 c0                	xor    %eax,%eax
     82c:	66 89 85 78 ff ff ff 	mov    %ax,-0x88(%rbp)
			notif_msg.payload[0] = dev->sd_node;
     833:	41 0f b7 06          	movzwl (%r14),%eax
     837:	48 89 45 80          	mov    %rax,-0x80(%rbp)
			/* No error handling for Host SCIF device */
			micscif_nodeqp_send(&scif_dev[SCIF_HOST_NODE],
     83b:	e8 00 00 00 00       	callq  840 <scif_munmap+0x340>
			/*
			 * A timeout is not required since only the cards can
			 * initiate this message. The Host is expected to be alive.
			 * If the host has crashed then so will the cards.
			 */
			wait_event(dev->sd_wq, 
     840:	49 8b 86 b0 01 00 00 	mov    0x1b0(%r14),%rax
     847:	4c 8b 85 38 ff ff ff 	mov    -0xc8(%rbp),%r8
     84e:	48 83 f8 02          	cmp    $0x2,%rax
     852:	74 6d                	je     8c1 <scif_munmap+0x3c1>
				dev->sd_wait_status != OP_IN_PROGRESS);
			/*
			 * Aieee! The host could not wake up the remote node.
			 * Bail out for now.
			 */
			if (dev->sd_wait_status == OP_COMPLETED) {
     854:	48 83 f8 03          	cmp    $0x3,%rax
     858:	0f 85 6b ff ff ff    	jne    7c9 <scif_munmap+0x2c9>
				dev->sd_state = SCIFDEV_RUNNING;
     85e:	41 c7 46 04 02 00 00 	movl   $0x2,0x4(%r14)
     865:	00 
 */
static __always_inline void
clear_bit(int nr, volatile unsigned long *addr)
{
	if (IS_IMMEDIATE(nr)) {
		asm volatile(LOCK_PREFIX "andb %1,%0"
     866:	f0 41 80 a6 8f 01 00 	lock andb $0x7f,0x18f(%r14)
     86d:	00 7f 
     86f:	e9 55 ff ff ff       	jmpq   7c9 <scif_munmap+0x2c9>
	might_sleep();
	pr_debug("SCIFAPI munmap: vma_start 0x%lx vma_end 0x%lx\n", 
			((vma)->vm_start), ((vma)->vm_end));
	/* used to be a BUG_ON(), prefer keeping the kernel alive */
	if (!vmapvt) {
		WARN_ON(1);
     874:	be c6 0a 00 00       	mov    $0xac6,%esi
     879:	48 c7 c7 00 00 00 00 	mov    $0x0,%rdi
     880:	e8 00 00 00 00       	callq  885 <scif_munmap+0x385>
		printk(KERN_ERR "SCIFAPI munmap: vma_start 0x%lx vma_end 0x%lx\n", 
     885:	49 8b 57 10          	mov    0x10(%r15),%rdx
     889:	48 c7 c7 00 00 00 00 	mov    $0x0,%rdi
     890:	31 c0                	xor    %eax,%eax
     892:	49 8b 77 08          	mov    0x8(%r15),%rsi
     896:	e8 00 00 00 00       	callq  89b <scif_munmap+0x39b>
     89b:	e9 c4 fd ff ff       	jmpq   664 <scif_munmap+0x164>

	micscif_inc_node_refcnt(ep->remote_dev, 1);
	mutex_lock(&ep->rma_info.rma_lock);

	if ((err = micscif_query_window(&req)))
		printk(KERN_ERR "%s %d err %d\n", __func__, __LINE__, err);
     8a0:	89 c1                	mov    %eax,%ecx
     8a2:	ba dd 0a 00 00       	mov    $0xadd,%edx
     8a7:	48 c7 c6 00 00 00 00 	mov    $0x0,%rsi
     8ae:	48 c7 c7 00 00 00 00 	mov    $0x0,%rdi
     8b5:	31 c0                	xor    %eax,%eax
     8b7:	e8 00 00 00 00       	callq  8bc <scif_munmap+0x3bc>
     8bc:	e9 2b fd ff ff       	jmpq   5ec <scif_munmap+0xec>
			/*
			 * A timeout is not required since only the cards can
			 * initiate this message. The Host is expected to be alive.
			 * If the host has crashed then so will the cards.
			 */
			wait_event(dev->sd_wq, 
     8c1:	48 8d bd 48 ff ff ff 	lea    -0xb8(%rbp),%rdi
     8c8:	30 c0                	xor    %al,%al
     8ca:	b9 0a 00 00 00       	mov    $0xa,%ecx
     8cf:	f3 ab                	rep stos %eax,%es:(%rdi)
     8d1:	48 c7 85 58 ff ff ff 	movq   $0x0,-0xa8(%rbp)
     8d8:	00 00 00 00 

DECLARE_PER_CPU(struct task_struct *, current_task);

static __always_inline struct task_struct *get_current(void)
{
	return percpu_read_stable(current_task);
     8dc:	65 48 8b 04 25 00 00 	mov    %gs:0x0,%rax
     8e3:	00 00 
     8e5:	48 89 85 50 ff ff ff 	mov    %rax,-0xb0(%rbp)
     8ec:	48 8d 85 48 ff ff ff 	lea    -0xb8(%rbp),%rax
     8f3:	48 83 c0 18          	add    $0x18,%rax
     8f7:	48 89 85 60 ff ff ff 	mov    %rax,-0xa0(%rbp)
     8fe:	48 89 85 68 ff ff ff 	mov    %rax,-0x98(%rbp)
     905:	49 8d 86 98 01 00 00 	lea    0x198(%r14),%rax
     90c:	48 89 85 28 ff ff ff 	mov    %rax,-0xd8(%rbp)
     913:	eb 0f                	jmp    924 <scif_munmap+0x424>
     915:	0f 1f 00             	nopl   (%rax)
     918:	e8 00 00 00 00       	callq  91d <scif_munmap+0x41d>
     91d:	4c 8b 85 38 ff ff ff 	mov    -0xc8(%rbp),%r8
     924:	48 8b bd 28 ff ff ff 	mov    -0xd8(%rbp),%rdi
     92b:	ba 02 00 00 00       	mov    $0x2,%edx
     930:	4c 89 85 38 ff ff ff 	mov    %r8,-0xc8(%rbp)
     937:	48 8d b5 48 ff ff ff 	lea    -0xb8(%rbp),%rsi
     93e:	e8 00 00 00 00       	callq  943 <scif_munmap+0x443>
     943:	49 83 be b0 01 00 00 	cmpq   $0x2,0x1b0(%r14)
     94a:	02 
     94b:	4c 8b 85 38 ff ff ff 	mov    -0xc8(%rbp),%r8
     952:	74 c4                	je     918 <scif_munmap+0x418>
     954:	48 8b bd 28 ff ff ff 	mov    -0xd8(%rbp),%rdi
     95b:	48 8d b5 48 ff ff ff 	lea    -0xb8(%rbp),%rsi
     962:	4c 89 85 38 ff ff ff 	mov    %r8,-0xc8(%rbp)
     969:	e8 00 00 00 00       	callq  96e <scif_munmap+0x46e>
     96e:	49 8b 86 b0 01 00 00 	mov    0x1b0(%r14),%rax
     975:	4c 8b 85 38 ff ff ff 	mov    -0xc8(%rbp),%r8
     97c:	e9 d3 fe ff ff       	jmpq   854 <scif_munmap+0x354>
     981:	66 66 66 66 66 66 2e 	data32 data32 data32 data32 data32 nopw %cs:0x0(%rax,%rax,1)
     988:	0f 1f 84 00 00 00 00 
     98f:	00 

0000000000000990 <__scif_open>:
 * Create a SCIF end point and set the state to UNBOUND.  This function
 * returns the address of the end point data structure.
 */
scif_epd_t
__scif_open(void)
{
     990:	55                   	push   %rbp
     991:	48 89 e5             	mov    %rsp,%rbp
     994:	53                   	push   %rbx
     995:	48 83 ec 08          	sub    $0x8,%rsp
     999:	e8 00 00 00 00       	callq  99e <__scif_open+0xe>
	struct endpt *ep;

	might_sleep();
     99e:	e8 00 00 00 00       	callq  9a3 <__scif_open+0x13>
	int index = kmalloc_index(size);

	if (index == 0)
		return NULL;

	return kmalloc_caches[index];
     9a3:	48 8b 3d 00 00 00 00 	mov    0x0(%rip),%rdi        # 9aa <__scif_open+0x1a>
			return kmalloc_large(size, flags);

		if (!(flags & SLUB_DMA)) {
			struct kmem_cache *s = kmalloc_slab(size);

			if (!s)
     9aa:	48 85 ff             	test   %rdi,%rdi
     9ad:	0f 84 9d 00 00 00    	je     a50 <__scif_open+0xc0>
				return ZERO_SIZE_PTR;

			return kmem_cache_alloc_trace(s, flags, size);
     9b3:	ba 90 02 00 00       	mov    $0x290,%edx
     9b8:	be d0 80 00 00       	mov    $0x80d0,%esi
     9bd:	e8 00 00 00 00       	callq  9c2 <__scif_open+0x32>
	if ((ep = (struct endpt *)kzalloc(sizeof(struct endpt), GFP_KERNEL)) == NULL) {
     9c2:	48 85 c0             	test   %rax,%rax
     9c5:	48 89 c3             	mov    %rax,%rbx
     9c8:	0f 84 b9 00 00 00    	je     a87 <__scif_open+0xf7>
	int index = kmalloc_index(size);

	if (index == 0)
		return NULL;

	return kmalloc_caches[index];
     9ce:	48 8b 3d 00 00 00 00 	mov    0x0(%rip),%rdi        # 9d5 <__scif_open+0x45>
			return kmalloc_large(size, flags);

		if (!(flags & SLUB_DMA)) {
			struct kmem_cache *s = kmalloc_slab(size);

			if (!s)
     9d5:	48 85 ff             	test   %rdi,%rdi
     9d8:	0f 84 87 00 00 00    	je     a65 <__scif_open+0xd5>
				return ZERO_SIZE_PTR;

			return kmem_cache_alloc_trace(s, flags, size);
     9de:	ba b0 00 00 00       	mov    $0xb0,%edx
     9e3:	be d0 80 00 00       	mov    $0x80d0,%esi
     9e8:	e8 00 00 00 00       	callq  9ed <__scif_open+0x5d>
		printk(KERN_ERR "SCIFAPI open: kzalloc fail on scif end point descriptor\n");
		goto err_ep_alloc;
	}

	if ((ep->qp_info.qp = (struct micscif_qp *)
     9ed:	48 85 c0             	test   %rax,%rax
     9f0:	48 89 43 10          	mov    %rax,0x10(%rbx)
     9f4:	74 79                	je     a6f <__scif_open+0xdf>
			kzalloc(sizeof(struct micscif_qp), GFP_KERNEL)) == NULL) {
		printk(KERN_ERR "SCIFAPI open: kzalloc fail on scif end point queue pointer\n");
		goto err_qp_alloc;
	}

	spin_lock_init(&ep->lock);
     9f6:	31 c0                	xor    %eax,%eax
	mutex_init (&ep->sendlock);
     9f8:	48 c7 c2 00 00 00 00 	mov    $0x0,%rdx
     9ff:	48 c7 c6 00 00 00 00 	mov    $0x0,%rsi
			kzalloc(sizeof(struct micscif_qp), GFP_KERNEL)) == NULL) {
		printk(KERN_ERR "SCIFAPI open: kzalloc fail on scif end point queue pointer\n");
		goto err_qp_alloc;
	}

	spin_lock_init(&ep->lock);
     a06:	66 89 43 04          	mov    %ax,0x4(%rbx)
	mutex_init (&ep->sendlock);
     a0a:	48 8d bb 00 02 00 00 	lea    0x200(%rbx),%rdi
     a11:	e8 00 00 00 00       	callq  a16 <__scif_open+0x86>
	mutex_init (&ep->recvlock);
     a16:	48 8d bb 20 02 00 00 	lea    0x220(%rbx),%rdi
     a1d:	48 c7 c2 00 00 00 00 	mov    $0x0,%rdx
     a24:	48 c7 c6 00 00 00 00 	mov    $0x0,%rsi
     a2b:	e8 00 00 00 00       	callq  a30 <__scif_open+0xa0>

	if (micscif_rma_ep_init(ep) < 0) {
     a30:	48 89 df             	mov    %rbx,%rdi
     a33:	e8 00 00 00 00       	callq  a38 <__scif_open+0xa8>
     a38:	85 c0                	test   %eax,%eax
     a3a:	78 5d                	js     a99 <__scif_open+0x109>
		printk(KERN_ERR "SCIFAPI _open: RMA EP Init failed\n");
		goto err_rma_init;
	}

	ep->state = SCIFEP_UNBOUND;
     a3c:	c7 03 01 00 00 00    	movl   $0x1,(%rbx)
	pr_debug("SCIFAPI open: ep %p success\n", ep);
	return (scif_epd_t)ep;
     a42:	48 89 d8             	mov    %rbx,%rax
	kfree(ep->qp_info.qp);
err_qp_alloc:
	kfree(ep);
err_ep_alloc:
	return NULL;
}
     a45:	48 83 c4 08          	add    $0x8,%rsp
     a49:	5b                   	pop    %rbx
     a4a:	5d                   	pop    %rbp
     a4b:	c3                   	retq   
     a4c:	0f 1f 40 00          	nopl   0x0(%rax)
	int index = kmalloc_index(size);

	if (index == 0)
		return NULL;

	return kmalloc_caches[index];
     a50:	48 8b 3d 00 00 00 00 	mov    0x0(%rip),%rdi        # a57 <__scif_open+0xc7>

		if (!(flags & SLUB_DMA)) {
			struct kmem_cache *s = kmalloc_slab(size);

			if (!s)
				return ZERO_SIZE_PTR;
     a57:	bb 10 00 00 00       	mov    $0x10,%ebx
			return kmalloc_large(size, flags);

		if (!(flags & SLUB_DMA)) {
			struct kmem_cache *s = kmalloc_slab(size);

			if (!s)
     a5c:	48 85 ff             	test   %rdi,%rdi
     a5f:	0f 85 79 ff ff ff    	jne    9de <__scif_open+0x4e>
	if ((ep = (struct endpt *)kzalloc(sizeof(struct endpt), GFP_KERNEL)) == NULL) {
		printk(KERN_ERR "SCIFAPI open: kzalloc fail on scif end point descriptor\n");
		goto err_ep_alloc;
	}

	if ((ep->qp_info.qp = (struct micscif_qp *)
     a65:	48 c7 43 10 10 00 00 	movq   $0x10,0x10(%rbx)
     a6c:	00 
     a6d:	eb 87                	jmp    9f6 <__scif_open+0x66>
			kzalloc(sizeof(struct micscif_qp), GFP_KERNEL)) == NULL) {
		printk(KERN_ERR "SCIFAPI open: kzalloc fail on scif end point queue pointer\n");
     a6f:	48 c7 c7 00 00 00 00 	mov    $0x0,%rdi
     a76:	e8 00 00 00 00       	callq  a7b <__scif_open+0xeb>
	return (scif_epd_t)ep;

err_rma_init:
	kfree(ep->qp_info.qp);
err_qp_alloc:
	kfree(ep);
     a7b:	48 89 df             	mov    %rbx,%rdi
     a7e:	e8 00 00 00 00       	callq  a83 <__scif_open+0xf3>
err_ep_alloc:
	return NULL;
     a83:	31 c0                	xor    %eax,%eax
     a85:	eb be                	jmp    a45 <__scif_open+0xb5>
{
	struct endpt *ep;

	might_sleep();
	if ((ep = (struct endpt *)kzalloc(sizeof(struct endpt), GFP_KERNEL)) == NULL) {
		printk(KERN_ERR "SCIFAPI open: kzalloc fail on scif end point descriptor\n");
     a87:	48 c7 c7 00 00 00 00 	mov    $0x0,%rdi
     a8e:	31 c0                	xor    %eax,%eax
     a90:	e8 00 00 00 00       	callq  a95 <__scif_open+0x105>
err_rma_init:
	kfree(ep->qp_info.qp);
err_qp_alloc:
	kfree(ep);
err_ep_alloc:
	return NULL;
     a95:	31 c0                	xor    %eax,%eax
	struct endpt *ep;

	might_sleep();
	if ((ep = (struct endpt *)kzalloc(sizeof(struct endpt), GFP_KERNEL)) == NULL) {
		printk(KERN_ERR "SCIFAPI open: kzalloc fail on scif end point descriptor\n");
		goto err_ep_alloc;
     a97:	eb ac                	jmp    a45 <__scif_open+0xb5>
	spin_lock_init(&ep->lock);
	mutex_init (&ep->sendlock);
	mutex_init (&ep->recvlock);

	if (micscif_rma_ep_init(ep) < 0) {
		printk(KERN_ERR "SCIFAPI _open: RMA EP Init failed\n");
     a99:	48 c7 c7 00 00 00 00 	mov    $0x0,%rdi
     aa0:	31 c0                	xor    %eax,%eax
     aa2:	e8 00 00 00 00       	callq  aa7 <__scif_open+0x117>
	ep->state = SCIFEP_UNBOUND;
	pr_debug("SCIFAPI open: ep %p success\n", ep);
	return (scif_epd_t)ep;

err_rma_init:
	kfree(ep->qp_info.qp);
     aa7:	48 8b 7b 10          	mov    0x10(%rbx),%rdi
     aab:	e8 00 00 00 00       	callq  ab0 <__scif_open+0x120>
     ab0:	eb c9                	jmp    a7b <__scif_open+0xeb>
     ab2:	66 66 66 66 66 2e 0f 	data32 data32 data32 data32 nopw %cs:0x0(%rax,%rax,1)
     ab9:	1f 84 00 00 00 00 00 

0000000000000ac0 <scif_open>:
	return NULL;
}

scif_epd_t
scif_open(void)
{
     ac0:	55                   	push   %rbp
     ac1:	48 89 e5             	mov    %rsp,%rbp
     ac4:	53                   	push   %rbx
     ac5:	48 83 ec 08          	sub    $0x8,%rsp
     ac9:	e8 00 00 00 00       	callq  ace <scif_open+0xe>
	struct endpt *ep;
	ep = (struct endpt *)__scif_open();
     ace:	e8 00 00 00 00       	callq  ad3 <scif_open+0x13>
	if (ep)
     ad3:	48 85 c0             	test   %rax,%rax

scif_epd_t
scif_open(void)
{
	struct endpt *ep;
	ep = (struct endpt *)__scif_open();
     ad6:	48 89 c3             	mov    %rax,%rbx
	if (ep)
     ad9:	74 0c                	je     ae7 <scif_open+0x27>
		kref_init(&(ep->ref_count));
     adb:	48 8d b8 70 01 00 00 	lea    0x170(%rax),%rdi
     ae2:	e8 00 00 00 00       	callq  ae7 <scif_open+0x27>
	return (scif_epd_t)ep;
}
     ae7:	48 83 c4 08          	add    $0x8,%rsp
     aeb:	48 89 d8             	mov    %rbx,%rax
     aee:	5b                   	pop    %rbx
     aef:	5d                   	pop    %rbp
     af0:	c3                   	retq   
     af1:	66 66 66 66 66 66 2e 	data32 data32 data32 data32 data32 nopw %cs:0x0(%rax,%rax,1)
     af8:	0f 1f 84 00 00 00 00 
     aff:	00 

0000000000000b00 <__scif_close>:
 * DMA and message traffic has ended the end point must be placed in a zombie
 * state and wait for the other side to also release it's memory references.
 */
int
__scif_close(scif_epd_t epd)
{
     b00:	55                   	push   %rbp
     b01:	48 89 e5             	mov    %rsp,%rbp
     b04:	41 57                	push   %r15
     b06:	41 56                	push   %r14
     b08:	41 55                	push   %r13
     b0a:	41 54                	push   %r12
     b0c:	53                   	push   %rbx
     b0d:	48 83 ec 78          	sub    $0x78,%rsp
     b11:	e8 00 00 00 00       	callq  b16 <__scif_close+0x16>
	struct list_head *pos, *tmpq;
	unsigned long sflags;
	enum endptstate oldstate;
	int err;

	pr_debug("SCIFAPI close: ep %p %s\n", ep, scif_ep_states[ep->state]);
     b16:	8b 07                	mov    (%rdi),%eax
 * DMA and message traffic has ended the end point must be placed in a zombie
 * state and wait for the other side to also release it's memory references.
 */
int
__scif_close(scif_epd_t epd)
{
     b18:	49 89 fd             	mov    %rdi,%r13
	enum endptstate oldstate;
	int err;

	pr_debug("SCIFAPI close: ep %p %s\n", ep, scif_ep_states[ep->state]);

	might_sleep();
     b1b:	e8 00 00 00 00       	callq  b20 <__scif_close+0x20>

	micscif_inc_node_refcnt(ep->remote_dev, 1);
     b20:	49 8b 9d 48 01 00 00 	mov    0x148(%r13),%rbx
 */
static __always_inline void
micscif_inc_node_refcnt(struct micscif_dev *dev, long cnt)
{
#ifdef SCIF_ENABLE_PM
	if (unlikely(dev && !atomic_long_add_unless(&dev->scif_ref_cnt, 
     b27:	48 85 db             	test   %rbx,%rbx
     b2a:	0f 85 10 07 00 00    	jne    1240 <__scif_close+0x740>
 * Map the spin_lock functions to the raw variants for PREEMPT_RT=n
 */

static inline raw_spinlock_t *spinlock_check(spinlock_t *lock)
{
	return &lock->rlock;
     b30:	4d 8d 65 04          	lea    0x4(%r13),%r12

	spin_lock_irqsave(&ep->lock, sflags);
     b34:	4c 89 e7             	mov    %r12,%rdi
     b37:	e8 00 00 00 00       	callq  b3c <__scif_close+0x3c>
	oldstate = ep->state;
     b3c:	41 8b 55 00          	mov    0x0(%r13),%edx

	ep->state = SCIFEP_CLOSING;
     b40:	41 c7 45 00 07 00 00 	movl   $0x7,0x0(%r13)
     b47:	00 

	might_sleep();

	micscif_inc_node_refcnt(ep->remote_dev, 1);

	spin_lock_irqsave(&ep->lock, sflags);
     b48:	48 89 c3             	mov    %rax,%rbx
	oldstate = ep->state;

	ep->state = SCIFEP_CLOSING;

	switch (oldstate) {
     b4b:	83 fa 0a             	cmp    $0xa,%edx
     b4e:	0f 87 14 01 00 00    	ja     c68 <__scif_close+0x168>
     b54:	ff 24 d5 00 00 00 00 	jmpq   *0x0(,%rdx,8)
		// and does a standard teardown.
		ts = jiffies;
		while (ep->state == SCIFEP_MAPPING) {
			cpu_relax();
			if (time_after((unsigned long)jiffies,ts + NODE_ALIVE_TIMEOUT)) {
				printk(KERN_ERR "%s %d ep->state %d\n", __func__, __LINE__, ep->state);
     b5b:	41 8b 4d 00          	mov    0x0(%r13),%ecx
     b5f:	ba c4 00 00 00       	mov    $0xc4,%edx
     b64:	48 c7 c6 00 00 00 00 	mov    $0x0,%rsi
     b6b:	31 c0                	xor    %eax,%eax
     b6d:	48 c7 c7 00 00 00 00 	mov    $0x0,%rdi
     b74:	e8 00 00 00 00       	callq  b79 <__scif_close+0x79>
				ep->state = SCIFEP_BOUND;
     b79:	41 c7 45 00 02 00 00 	movl   $0x2,0x0(%r13)
     b80:	00 
     b81:	0f 1f 80 00 00 00 00 	nopl   0x0(%rax)
				break;
			}
		}

		init_waitqueue_head(&ep->disconwq);	// Wait for connection queue
     b88:	4d 8d b5 a0 01 00 00 	lea    0x1a0(%r13),%r14
     b8f:	48 c7 c6 00 00 00 00 	mov    $0x0,%rsi
     b96:	4c 89 f7             	mov    %r14,%rdi
     b99:	e8 00 00 00 00       	callq  b9e <__scif_close+0x9e>
	raw_spin_unlock_irq(&lock->rlock);
}

static inline void spin_unlock_irqrestore(spinlock_t *lock, unsigned long flags)
{
	raw_spin_unlock_irqrestore(&lock->rlock, flags);
     b9e:	48 89 de             	mov    %rbx,%rsi
     ba1:	4c 89 e7             	mov    %r12,%rdi
     ba4:	e8 00 00 00 00       	callq  ba9 <__scif_close+0xa9>
		spin_unlock_irqrestore(&ep->lock, sflags);

		micscif_unregister_all_windows(epd);
     ba9:	4c 89 ef             	mov    %r13,%rdi
     bac:	e8 00 00 00 00       	callq  bb1 <__scif_close+0xb1>

		// Remove from the connected list
		spin_lock_irqsave(&ms_info.mi_connlock, sflags);
     bb1:	48 c7 c7 00 00 00 00 	mov    $0x0,%rdi
     bb8:	e8 00 00 00 00       	callq  bbd <__scif_close+0xbd>
		list_for_each_safe(pos, tmpq, &ms_info.mi_connected) {
     bbd:	48 8b 0d 00 00 00 00 	mov    0x0(%rip),%rcx        # bc4 <__scif_close+0xc4>
		spin_unlock_irqrestore(&ep->lock, sflags);

		micscif_unregister_all_windows(epd);

		// Remove from the connected list
		spin_lock_irqsave(&ms_info.mi_connlock, sflags);
     bc4:	48 89 c3             	mov    %rax,%rbx
		list_for_each_safe(pos, tmpq, &ms_info.mi_connected) {
     bc7:	48 81 f9 00 00 00 00 	cmp    $0x0,%rcx
     bce:	48 8b 11             	mov    (%rcx),%rdx
     bd1:	74 34                	je     c07 <__scif_close+0x107>
			tmpep = list_entry(pos, struct endpt, list);
     bd3:	4c 8d b9 c0 fd ff ff 	lea    -0x240(%rcx),%r15
			if (tmpep == ep) {
     bda:	4d 39 fd             	cmp    %r15,%r13
     bdd:	75 1c                	jne    bfb <__scif_close+0xfb>
     bdf:	e9 fe 06 00 00       	jmpq   12e2 <__scif_close+0x7e2>
     be4:	0f 1f 40 00          	nopl   0x0(%rax)
		micscif_unregister_all_windows(epd);

		// Remove from the connected list
		spin_lock_irqsave(&ms_info.mi_connlock, sflags);
		list_for_each_safe(pos, tmpq, &ms_info.mi_connected) {
			tmpep = list_entry(pos, struct endpt, list);
     be8:	4c 8d ba c0 fd ff ff 	lea    -0x240(%rdx),%r15
			if (tmpep == ep) {
     bef:	4d 39 fd             	cmp    %r15,%r13
     bf2:	0f 84 f0 06 00 00    	je     12e8 <__scif_close+0x7e8>

		micscif_unregister_all_windows(epd);

		// Remove from the connected list
		spin_lock_irqsave(&ms_info.mi_connlock, sflags);
		list_for_each_safe(pos, tmpq, &ms_info.mi_connected) {
     bf8:	48 89 c2             	mov    %rax,%rdx
     bfb:	48 81 fa 00 00 00 00 	cmp    $0x0,%rdx
     c02:	48 8b 02             	mov    (%rdx),%rax
     c05:	75 e1                	jne    be8 <__scif_close+0xe8>
			// The other side has completed the disconnect before
			// the end point can be removed from the list.  Therefore
			// the ep lock is not locked, traverse the disconnected list
			// to find the endpoint, release the conn lock and
			// proceed to teardown the end point below.
			list_for_each_safe(pos, tmpq, &ms_info.mi_disconnected) {
     c07:	48 8b 0d 00 00 00 00 	mov    0x0(%rip),%rcx        # c0e <__scif_close+0x10e>
     c0e:	48 81 f9 00 00 00 00 	cmp    $0x0,%rcx
     c15:	48 8b 01             	mov    (%rcx),%rax
     c18:	74 3c                	je     c56 <__scif_close+0x156>
				tmpep = list_entry(pos, struct endpt, list);
     c1a:	48 8d 91 c0 fd ff ff 	lea    -0x240(%rcx),%rdx
				if (tmpep == ep) {
     c21:	49 39 d5             	cmp    %rdx,%r13
     c24:	0f 85 e9 04 00 00    	jne    1113 <__scif_close+0x613>
     c2a:	48 89 c2             	mov    %rax,%rdx
     c2d:	48 89 c8             	mov    %rcx,%rax
}

static inline void list_del(struct list_head *entry)
{
	__list_del(entry->prev, entry->next);
	entry->next = LIST_POISON1;
     c30:	48 be 00 01 10 00 00 	movabs $0xdead000000100100,%rsi
     c37:	00 ad de 
	__list_del(entry->prev, entry->next);
}

static inline void list_del(struct list_head *entry)
{
	__list_del(entry->prev, entry->next);
     c3a:	48 8b 48 08          	mov    0x8(%rax),%rcx
 * This is only for internal list manipulation where we know
 * the prev/next entries already!
 */
static inline void __list_del(struct list_head * prev, struct list_head * next)
{
	next->prev = prev;
     c3e:	48 89 4a 08          	mov    %rcx,0x8(%rdx)
	prev->next = next;
     c42:	48 89 11             	mov    %rdx,(%rcx)
}

static inline void list_del(struct list_head *entry)
{
	__list_del(entry->prev, entry->next);
	entry->next = LIST_POISON1;
     c45:	48 89 30             	mov    %rsi,(%rax)
	entry->prev = LIST_POISON2;
     c48:	48 be 00 02 20 00 00 	movabs $0xdead000000200200,%rsi
     c4f:	00 ad de 
     c52:	48 89 70 08          	mov    %rsi,0x8(%rax)
     c56:	48 89 de             	mov    %rbx,%rsi
     c59:	48 c7 c7 00 00 00 00 	mov    $0x0,%rdi
     c60:	e8 00 00 00 00       	callq  c65 <__scif_close+0x165>
     c65:	0f 1f 00             	nopl   (%rax)
		wake_up_interruptible(&ep->conwq);
		spin_unlock_irqrestore(&ep->lock, sflags);
		break;
	}
	}
	if (ep->port.port && !ep->accepted_ep)
     c68:	41 0f b7 45 08       	movzwl 0x8(%r13),%eax
     c6d:	66 85 c0             	test   %ax,%ax
     c70:	75 5e                	jne    cd0 <__scif_close+0x1d0>
     c72:	66 0f 1f 44 00 00    	nopw   0x0(%rax,%rax,1)
		put_scif_port(ep->port.port);
	micscif_dec_node_refcnt(ep->remote_dev, 1);
     c78:	49 8b 9d 48 01 00 00 	mov    0x148(%r13),%rbx
 */
static __always_inline void
micscif_dec_node_refcnt(struct micscif_dev *dev, long cnt)
{
#ifdef SCIF_ENABLE_PM
	if (dev) {
     c7f:	48 85 db             	test   %rbx,%rbx
     c82:	74 21                	je     ca5 <__scif_close+0x1a5>
		if (unlikely((atomic_long_sub_return(cnt, 
     c84:	4c 8d a3 88 01 00 00 	lea    0x188(%rbx),%r12
 *
 * Atomically adds @i to @v and returns @i + @v
 */
static inline long atomic64_add_return(long i, atomic64_t *v)
{
	return i + xadd(&v->counter, i);
     c8b:	48 c7 c0 ff ff ff ff 	mov    $0xffffffffffffffff,%rax
     c92:	f0 48 0f c1 83 88 01 	lock xadd %rax,0x188(%rbx)
     c99:	00 00 
     c9b:	48 83 e8 01          	sub    $0x1,%rax
     c9f:	0f 88 8d 07 00 00    	js     1432 <__scif_close+0x932>
	micscif_teardown_ep(ep);
     ca5:	4c 89 ef             	mov    %r13,%rdi
     ca8:	e8 00 00 00 00       	callq  cad <__scif_close+0x1ad>
	micscif_add_epd_to_zombie_list(ep, !MI_EPLOCK_HELD);
     cad:	4c 89 ef             	mov    %r13,%rdi
     cb0:	31 f6                	xor    %esi,%esi
     cb2:	e8 00 00 00 00       	callq  cb7 <__scif_close+0x1b7>
	return 0;
}
     cb7:	48 83 c4 78          	add    $0x78,%rsp
     cbb:	31 c0                	xor    %eax,%eax
     cbd:	5b                   	pop    %rbx
     cbe:	41 5c                	pop    %r12
     cc0:	41 5d                	pop    %r13
     cc2:	41 5e                	pop    %r14
     cc4:	41 5f                	pop    %r15
     cc6:	5d                   	pop    %rbp
     cc7:	c3                   	retq   
     cc8:	0f 1f 84 00 00 00 00 	nopl   0x0(%rax,%rax,1)
     ccf:	00 
		wake_up_interruptible(&ep->conwq);
		spin_unlock_irqrestore(&ep->lock, sflags);
		break;
	}
	}
	if (ep->port.port && !ep->accepted_ep)
     cd0:	41 80 bd 60 01 00 00 	cmpb   $0x0,0x160(%r13)
     cd7:	00 
     cd8:	75 9e                	jne    c78 <__scif_close+0x178>
		put_scif_port(ep->port.port);
     cda:	0f b7 f8             	movzwl %ax,%edi
     cdd:	e8 00 00 00 00       	callq  ce2 <__scif_close+0x1e2>
     ce2:	eb 94                	jmp    c78 <__scif_close+0x178>
     ce4:	0f 1f 40 00          	nopl   0x0(%rax)
     ce8:	48 89 c6             	mov    %rax,%rsi
     ceb:	4c 89 e7             	mov    %r12,%rdi
     cee:	e8 00 00 00 00       	callq  cf3 <__scif_close+0x1f3>
	case SCIFEP_ZOMBIE:
		BUG_ON(SCIFEP_ZOMBIE == oldstate);
	case SCIFEP_CLOSED:
	case SCIFEP_DISCONNECTED:
		spin_unlock_irqrestore(&ep->lock, sflags);
		micscif_unregister_all_windows(epd);
     cf3:	4c 89 ef             	mov    %r13,%rdi
     cf6:	e8 00 00 00 00       	callq  cfb <__scif_close+0x1fb>
		// Remove from the disconnected list
		spin_lock_irqsave(&ms_info.mi_connlock, sflags);
     cfb:	48 c7 c7 00 00 00 00 	mov    $0x0,%rdi
     d02:	e8 00 00 00 00       	callq  d07 <__scif_close+0x207>
		list_for_each_safe(pos, tmpq, &ms_info.mi_disconnected) {
     d07:	48 8b 3d 00 00 00 00 	mov    0x0(%rip),%rdi        # d0e <__scif_close+0x20e>
     d0e:	48 81 ff 00 00 00 00 	cmp    $0x0,%rdi
     d15:	48 8b 17             	mov    (%rdi),%rdx
     d18:	74 35                	je     d4f <__scif_close+0x24f>
			tmpep = list_entry(pos, struct endpt, list);
     d1a:	48 8d 8f c0 fd ff ff 	lea    -0x240(%rdi),%rcx
			if (tmpep == ep) {
     d21:	49 39 cd             	cmp    %rcx,%r13
     d24:	75 1d                	jne    d43 <__scif_close+0x243>
     d26:	e9 b8 04 00 00       	jmpq   11e3 <__scif_close+0x6e3>
     d2b:	0f 1f 44 00 00       	nopl   0x0(%rax,%rax,1)
		spin_unlock_irqrestore(&ep->lock, sflags);
		micscif_unregister_all_windows(epd);
		// Remove from the disconnected list
		spin_lock_irqsave(&ms_info.mi_connlock, sflags);
		list_for_each_safe(pos, tmpq, &ms_info.mi_disconnected) {
			tmpep = list_entry(pos, struct endpt, list);
     d30:	48 8d ba c0 fd ff ff 	lea    -0x240(%rdx),%rdi
			if (tmpep == ep) {
     d37:	49 39 fd             	cmp    %rdi,%r13
     d3a:	0f 84 b0 04 00 00    	je     11f0 <__scif_close+0x6f0>
	case SCIFEP_DISCONNECTED:
		spin_unlock_irqrestore(&ep->lock, sflags);
		micscif_unregister_all_windows(epd);
		// Remove from the disconnected list
		spin_lock_irqsave(&ms_info.mi_connlock, sflags);
		list_for_each_safe(pos, tmpq, &ms_info.mi_disconnected) {
     d40:	48 89 ca             	mov    %rcx,%rdx
     d43:	48 81 fa 00 00 00 00 	cmp    $0x0,%rdx
     d4a:	48 8b 0a             	mov    (%rdx),%rcx
     d4d:	75 e1                	jne    d30 <__scif_close+0x230>
     d4f:	48 89 c6             	mov    %rax,%rsi
     d52:	48 c7 c7 00 00 00 00 	mov    $0x0,%rdi
     d59:	e8 00 00 00 00       	callq  d5e <__scif_close+0x25e>
		wake_up_interruptible(&ep->conwq);
		spin_unlock_irqrestore(&ep->lock, sflags);
		break;
	}
	}
	if (ep->port.port && !ep->accepted_ep)
     d5e:	41 0f b7 45 08       	movzwl 0x8(%r13),%eax
     d63:	66 85 c0             	test   %ax,%ax
     d66:	0f 84 0c ff ff ff    	je     c78 <__scif_close+0x178>
     d6c:	e9 5f ff ff ff       	jmpq   cd0 <__scif_close+0x1d0>
     d71:	0f 1f 80 00 00 00 00 	nopl   0x0(%rax)
     d78:	48 89 c6             	mov    %rax,%rsi
     d7b:	4c 89 e7             	mov    %r12,%rdi
     d7e:	e8 00 00 00 00       	callq  d83 <__scif_close+0x283>
		struct conreq *conreq;
		struct nodemsg msg;
		struct endpt *aep;

		spin_unlock_irqrestore(&ep->lock, sflags);
		spin_lock_irqsave(&ms_info.mi_eplock, sflags);
     d83:	48 c7 c7 00 00 00 00 	mov    $0x0,%rdi
     d8a:	e8 00 00 00 00       	callq  d8f <__scif_close+0x28f>
     d8f:	49 89 c6             	mov    %rax,%r14

		// remove from listen list
		list_for_each_safe(pos, tmpq, &ms_info.mi_listen) {
     d92:	48 8b 05 00 00 00 00 	mov    0x0(%rip),%rax        # d99 <__scif_close+0x299>
     d99:	48 3d 00 00 00 00    	cmp    $0x0,%rax
     d9f:	48 8b 10             	mov    (%rax),%rdx
     da2:	75 1e                	jne    dc2 <__scif_close+0x2c2>
     da4:	eb 6a                	jmp    e10 <__scif_close+0x310>
     da6:	66 2e 0f 1f 84 00 00 	nopw   %cs:0x0(%rax,%rax,1)
     dad:	00 00 00 
     db0:	48 81 fa 00 00 00 00 	cmp    $0x0,%rdx
     db7:	48 8b 0a             	mov    (%rdx),%rcx
     dba:	48 89 d0             	mov    %rdx,%rax
     dbd:	74 51                	je     e10 <__scif_close+0x310>
     dbf:	48 89 ca             	mov    %rcx,%rdx
			tmpep = list_entry(pos, struct endpt, list);
     dc2:	48 8d 88 c0 fd ff ff 	lea    -0x240(%rax),%rcx
			if (tmpep == ep) {
     dc9:	49 39 cd             	cmp    %rcx,%r13
     dcc:	75 e2                	jne    db0 <__scif_close+0x2b0>
	__list_del(entry->prev, entry->next);
}

static inline void list_del(struct list_head *entry)
{
	__list_del(entry->prev, entry->next);
     dce:	48 8b 30             	mov    (%rax),%rsi

		spin_unlock_irqrestore(&ep->lock, sflags);
		spin_lock_irqsave(&ms_info.mi_eplock, sflags);

		// remove from listen list
		list_for_each_safe(pos, tmpq, &ms_info.mi_listen) {
     dd1:	48 81 fa 00 00 00 00 	cmp    $0x0,%rdx
     dd8:	48 8b 48 08          	mov    0x8(%rax),%rcx
 * This is only for internal list manipulation where we know
 * the prev/next entries already!
 */
static inline void __list_del(struct list_head * prev, struct list_head * next)
{
	next->prev = prev;
     ddc:	48 89 4e 08          	mov    %rcx,0x8(%rsi)
	prev->next = next;
     de0:	48 89 31             	mov    %rsi,(%rcx)
}

static inline void list_del(struct list_head *entry)
{
	__list_del(entry->prev, entry->next);
	entry->next = LIST_POISON1;
     de3:	48 be 00 01 10 00 00 	movabs $0xdead000000100100,%rsi
     dea:	00 ad de 
     ded:	48 89 30             	mov    %rsi,(%rax)
	entry->prev = LIST_POISON2;
     df0:	48 be 00 02 20 00 00 	movabs $0xdead000000200200,%rsi
     df7:	00 ad de 
     dfa:	48 89 70 08          	mov    %rsi,0x8(%rax)
     dfe:	48 89 d0             	mov    %rdx,%rax
     e01:	48 8b 0a             	mov    (%rdx),%rcx
     e04:	75 b9                	jne    dbf <__scif_close+0x2bf>
     e06:	66 2e 0f 1f 84 00 00 	nopw   %cs:0x0(%rax,%rax,1)
     e0d:	00 00 00 
			if (tmpep == ep) {
				list_del(pos);
			}
		}
		// Remove any dangling accepts
		while (ep->acceptcnt) {
     e10:	41 8b 8d 60 02 00 00 	mov    0x260(%r13),%ecx
     e17:	85 c9                	test   %ecx,%ecx
     e19:	0f 84 89 01 00 00    	je     fa8 <__scif_close+0x4a8>
     e1f:	90                   	nop
			aep = list_first_entry(&ep->li_accept, struct endpt, liacceptlist);
     e20:	4d 8b bd 50 02 00 00 	mov    0x250(%r13),%r15
			BUG_ON(!aep);
     e27:	4c 89 fb             	mov    %r15,%rbx
     e2a:	48 81 eb 68 02 00 00 	sub    $0x268,%rbx
     e31:	0f 84 a9 04 00 00    	je     12e0 <__scif_close+0x7e0>
	__list_del(entry->prev, entry->next);
}

static inline void list_del(struct list_head *entry)
{
	__list_del(entry->prev, entry->next);
     e37:	49 8b 47 08          	mov    0x8(%r15),%rax
     e3b:	49 8b 17             	mov    (%r15),%rdx
 * This is only for internal list manipulation where we know
 * the prev/next entries already!
 */
static inline void __list_del(struct list_head * prev, struct list_head * next)
{
	next->prev = prev;
     e3e:	48 89 42 08          	mov    %rax,0x8(%rdx)
	prev->next = next;
     e42:	48 89 10             	mov    %rdx,(%rax)
}

static inline void list_del(struct list_head *entry)
{
	__list_del(entry->prev, entry->next);
	entry->next = LIST_POISON1;
     e45:	48 b8 00 01 10 00 00 	movabs $0xdead000000100100,%rax
     e4c:	00 ad de 
     e4f:	49 89 07             	mov    %rax,(%r15)
	entry->prev = LIST_POISON2;
     e52:	48 b8 00 02 20 00 00 	movabs $0xdead000000200200,%rax
     e59:	00 ad de 
     e5c:	49 89 47 08          	mov    %rax,0x8(%r15)
			list_del(&aep->liacceptlist);
			if (aep->port.port && !aep->accepted_ep)
     e60:	41 0f b7 87 a0 fd ff 	movzwl -0x260(%r15),%eax
     e67:	ff 
     e68:	66 85 c0             	test   %ax,%ax
     e6b:	74 0e                	je     e7b <__scif_close+0x37b>
     e6d:	41 80 bf f8 fe ff ff 	cmpb   $0x0,-0x108(%r15)
     e74:	00 
     e75:	0f 84 b5 03 00 00    	je     1230 <__scif_close+0x730>
				put_scif_port(aep->port.port);
			list_for_each_safe(pos, tmpq, &ms_info.mi_uaccept) {
     e7b:	48 8b 15 00 00 00 00 	mov    0x0(%rip),%rdx        # e82 <__scif_close+0x382>
     e82:	48 81 fa 00 00 00 00 	cmp    $0x0,%rdx
     e89:	48 8b 0a             	mov    (%rdx),%rcx
     e8c:	74 31                	je     ebf <__scif_close+0x3bf>
				tmpep = list_entry(pos, struct endpt, miacceptlist);
     e8e:	48 8d 82 88 fd ff ff 	lea    -0x278(%rdx),%rax
				if (tmpep == aep) {
     e95:	48 39 c3             	cmp    %rax,%rbx
     e98:	75 19                	jne    eb3 <__scif_close+0x3b3>
     e9a:	e9 d7 02 00 00       	jmpq   1176 <__scif_close+0x676>
     e9f:	90                   	nop
			BUG_ON(!aep);
			list_del(&aep->liacceptlist);
			if (aep->port.port && !aep->accepted_ep)
				put_scif_port(aep->port.port);
			list_for_each_safe(pos, tmpq, &ms_info.mi_uaccept) {
				tmpep = list_entry(pos, struct endpt, miacceptlist);
     ea0:	48 8d 91 88 fd ff ff 	lea    -0x278(%rcx),%rdx
				if (tmpep == aep) {
     ea7:	48 39 d3             	cmp    %rdx,%rbx
     eaa:	0f 84 d0 02 00 00    	je     1180 <__scif_close+0x680>
			aep = list_first_entry(&ep->li_accept, struct endpt, liacceptlist);
			BUG_ON(!aep);
			list_del(&aep->liacceptlist);
			if (aep->port.port && !aep->accepted_ep)
				put_scif_port(aep->port.port);
			list_for_each_safe(pos, tmpq, &ms_info.mi_uaccept) {
     eb0:	48 89 c1             	mov    %rax,%rcx
     eb3:	48 81 f9 00 00 00 00 	cmp    $0x0,%rcx
     eba:	48 8b 01             	mov    (%rcx),%rax
     ebd:	75 e1                	jne    ea0 <__scif_close+0x3a0>
     ebf:	4c 89 f6             	mov    %r14,%rsi
     ec2:	48 c7 c7 00 00 00 00 	mov    $0x0,%rdi
     ec9:	e8 00 00 00 00       	callq  ece <__scif_close+0x3ce>
					list_del(pos);
					break;
				}
			}
			spin_unlock_irqrestore(&ms_info.mi_eplock, sflags);
			spin_lock_irqsave(&ms_info.mi_connlock, sflags);
     ece:	48 c7 c7 00 00 00 00 	mov    $0x0,%rdi
     ed5:	e8 00 00 00 00       	callq  eda <__scif_close+0x3da>
			list_for_each_safe(pos, tmpq, &ms_info.mi_connected) {
     eda:	48 8b 3d 00 00 00 00 	mov    0x0(%rip),%rdi        # ee1 <__scif_close+0x3e1>
     ee1:	48 81 ff 00 00 00 00 	cmp    $0x0,%rdi
     ee8:	48 8b 0f             	mov    (%rdi),%rcx
     eeb:	74 32                	je     f1f <__scif_close+0x41f>
				tmpep = list_entry(pos, struct endpt, list);
     eed:	48 8d 97 c0 fd ff ff 	lea    -0x240(%rdi),%rdx
				if (tmpep == aep) {
     ef4:	48 39 d3             	cmp    %rdx,%rbx
     ef7:	75 1a                	jne    f13 <__scif_close+0x413>
     ef9:	e9 25 02 00 00       	jmpq   1123 <__scif_close+0x623>
     efe:	66 90                	xchg   %ax,%ax
				}
			}
			spin_unlock_irqrestore(&ms_info.mi_eplock, sflags);
			spin_lock_irqsave(&ms_info.mi_connlock, sflags);
			list_for_each_safe(pos, tmpq, &ms_info.mi_connected) {
				tmpep = list_entry(pos, struct endpt, list);
     f00:	48 8d b9 c0 fd ff ff 	lea    -0x240(%rcx),%rdi
				if (tmpep == aep) {
     f07:	48 39 fb             	cmp    %rdi,%rbx
     f0a:	0f 84 20 02 00 00    	je     1130 <__scif_close+0x630>
					break;
				}
			}
			spin_unlock_irqrestore(&ms_info.mi_eplock, sflags);
			spin_lock_irqsave(&ms_info.mi_connlock, sflags);
			list_for_each_safe(pos, tmpq, &ms_info.mi_connected) {
     f10:	48 89 d1             	mov    %rdx,%rcx
     f13:	48 81 f9 00 00 00 00 	cmp    $0x0,%rcx
     f1a:	48 8b 11             	mov    (%rcx),%rdx
     f1d:	75 e1                	jne    f00 <__scif_close+0x400>
					list_del(pos);
					put_conn_count(aep->remote_dev);
					break;
				}
			}
			list_for_each_safe(pos, tmpq, &ms_info.mi_disconnected) {
     f1f:	48 8b 35 00 00 00 00 	mov    0x0(%rip),%rsi        # f26 <__scif_close+0x426>
     f26:	48 81 fe 00 00 00 00 	cmp    $0x0,%rsi
     f2d:	48 8b 0e             	mov    (%rsi),%rcx
     f30:	74 35                	je     f67 <__scif_close+0x467>
				tmpep = list_entry(pos, struct endpt, list);
     f32:	48 8d 96 c0 fd ff ff 	lea    -0x240(%rsi),%rdx
				if (tmpep == aep) {
     f39:	48 39 d3             	cmp    %rdx,%rbx
     f3c:	75 1d                	jne    f5b <__scif_close+0x45b>
     f3e:	e9 68 02 00 00       	jmpq   11ab <__scif_close+0x6ab>
     f43:	0f 1f 44 00 00       	nopl   0x0(%rax,%rax,1)
					put_conn_count(aep->remote_dev);
					break;
				}
			}
			list_for_each_safe(pos, tmpq, &ms_info.mi_disconnected) {
				tmpep = list_entry(pos, struct endpt, list);
     f48:	48 8d b9 c0 fd ff ff 	lea    -0x240(%rcx),%rdi
				if (tmpep == aep) {
     f4f:	48 39 fb             	cmp    %rdi,%rbx
     f52:	0f 84 60 02 00 00    	je     11b8 <__scif_close+0x6b8>
					list_del(pos);
					put_conn_count(aep->remote_dev);
					break;
				}
			}
			list_for_each_safe(pos, tmpq, &ms_info.mi_disconnected) {
     f58:	48 89 d1             	mov    %rdx,%rcx
     f5b:	48 81 f9 00 00 00 00 	cmp    $0x0,%rcx
     f62:	48 8b 11             	mov    (%rcx),%rdx
     f65:	75 e1                	jne    f48 <__scif_close+0x448>
     f67:	48 89 c6             	mov    %rax,%rsi
     f6a:	48 c7 c7 00 00 00 00 	mov    $0x0,%rdi
     f71:	e8 00 00 00 00       	callq  f76 <__scif_close+0x476>
					list_del(pos);
					break;
				}
			}
			spin_unlock_irqrestore(&ms_info.mi_connlock, sflags);
			micscif_teardown_ep(aep);
     f76:	48 89 df             	mov    %rbx,%rdi
     f79:	e8 00 00 00 00       	callq  f7e <__scif_close+0x47e>
			spin_lock_irqsave(&ms_info.mi_eplock, sflags);
     f7e:	48 c7 c7 00 00 00 00 	mov    $0x0,%rdi
     f85:	e8 00 00 00 00       	callq  f8a <__scif_close+0x48a>
			micscif_add_epd_to_zombie_list(aep, MI_EPLOCK_HELD);
     f8a:	be 01 00 00 00       	mov    $0x1,%esi
     f8f:	48 89 df             	mov    %rbx,%rdi
					break;
				}
			}
			spin_unlock_irqrestore(&ms_info.mi_connlock, sflags);
			micscif_teardown_ep(aep);
			spin_lock_irqsave(&ms_info.mi_eplock, sflags);
     f92:	49 89 c6             	mov    %rax,%r14
			micscif_add_epd_to_zombie_list(aep, MI_EPLOCK_HELD);
     f95:	e8 00 00 00 00       	callq  f9a <__scif_close+0x49a>
			if (tmpep == ep) {
				list_del(pos);
			}
		}
		// Remove any dangling accepts
		while (ep->acceptcnt) {
     f9a:	41 83 ad 60 02 00 00 	subl   $0x1,0x260(%r13)
     fa1:	01 
     fa2:	0f 85 78 fe ff ff    	jne    e20 <__scif_close+0x320>
	raw_spin_lock_init(&(_lock)->rlock);		\
} while (0)

static inline void spin_lock(spinlock_t *lock)
{
	raw_spin_lock(&lock->rlock);
     fa8:	4c 89 e7             	mov    %r12,%rdi
     fab:	e8 00 00 00 00       	callq  fb0 <__scif_close+0x4b0>
}

#if (NR_CPUS < 256)
static __always_inline void __ticket_spin_unlock(arch_spinlock_t *lock)
{
	asm volatile(UNLOCK_LOCK_PREFIX "incb %0"
     fb0:	fe 05 00 00 00 00    	incb   0x0(%rip)        # fb6 <__scif_close+0x4b6>

		spin_lock(&ep->lock);
		spin_unlock(&ms_info.mi_eplock);

		// Remove and reject any pending connection requests.
		while (ep->conreqcnt) {
     fb6:	41 8b 95 58 01 00 00 	mov    0x158(%r13),%edx
     fbd:	4c 8d 7d a4          	lea    -0x5c(%rbp),%r15
     fc1:	85 d2                	test   %edx,%edx
     fc3:	0f 84 a2 00 00 00    	je     106b <__scif_close+0x56b>
     fc9:	0f 1f 80 00 00 00 00 	nopl   0x0(%rax)
			conreq = list_first_entry(&ep->conlist, struct conreq, list);
     fd0:	49 8b 9d 78 01 00 00 	mov    0x178(%r13),%rbx
			/*
			 * No Error Handling on purpose for micscif_nodeqp_send().
			 * If the remote node is lost we still want free the connection
			 * requests on the self node.
			 */
			micscif_nodeqp_send(&scif_dev[conreq->msg.src.node], &msg, ep);
     fd7:	4c 89 fe             	mov    %r15,%rsi
	__list_del(entry->prev, entry->next);
}

static inline void list_del(struct list_head *entry)
{
	__list_del(entry->prev, entry->next);
     fda:	48 8b 13             	mov    (%rbx),%rdx
     fdd:	48 8b 43 08          	mov    0x8(%rbx),%rax
 * This is only for internal list manipulation where we know
 * the prev/next entries already!
 */
static inline void __list_del(struct list_head * prev, struct list_head * next)
{
	next->prev = prev;
     fe1:	48 89 42 08          	mov    %rax,0x8(%rdx)
	prev->next = next;
     fe5:	48 89 10             	mov    %rdx,(%rax)
}

static inline void list_del(struct list_head *entry)
{
	__list_del(entry->prev, entry->next);
	entry->next = LIST_POISON1;
     fe8:	48 b8 00 01 10 00 00 	movabs $0xdead000000100100,%rax
     fef:	00 ad de 
     ff2:	48 89 03             	mov    %rax,(%rbx)
	entry->prev = LIST_POISON2;
     ff5:	48 b8 00 02 20 00 00 	movabs $0xdead000000200200,%rax
     ffc:	00 ad de 
     fff:	48 89 43 08          	mov    %rax,0x8(%rbx)
		// Remove and reject any pending connection requests.
		while (ep->conreqcnt) {
			conreq = list_first_entry(&ep->conlist, struct conreq, list);
			list_del(&conreq->list);

			msg.uop = SCIF_CNCT_REJ;
    1003:	c7 45 ac 09 00 00 00 	movl   $0x9,-0x54(%rbp)
			msg.dst.node = conreq->msg.src.node;
    100a:	0f b7 43 d0          	movzwl -0x30(%rbx),%eax
    100e:	66 89 45 a8          	mov    %ax,-0x58(%rbp)
			msg.dst.port = conreq->msg.src.port;
    1012:	0f b7 43 d2          	movzwl -0x2e(%rbx),%eax
    1016:	66 89 45 aa          	mov    %ax,-0x56(%rbp)
			msg.payload[0] = conreq->msg.payload[0];
    101a:	48 8b 43 dc          	mov    -0x24(%rbx),%rax
    101e:	48 89 45 b0          	mov    %rax,-0x50(%rbp)
			msg.payload[1] = conreq->msg.payload[1];
    1022:	48 8b 43 e4          	mov    -0x1c(%rbx),%rax
    1026:	48 89 45 b8          	mov    %rax,-0x48(%rbp)
			/*
			 * No Error Handling on purpose for micscif_nodeqp_send().
			 * If the remote node is lost we still want free the connection
			 * requests on the self node.
			 */
			micscif_nodeqp_send(&scif_dev[conreq->msg.src.node], &msg, ep);
    102a:	0f b7 43 d0          	movzwl -0x30(%rbx),%eax
    102e:	48 89 c2             	mov    %rax,%rdx
    1031:	48 c1 e0 09          	shl    $0x9,%rax
    1035:	48 c1 e2 05          	shl    $0x5,%rdx
    1039:	48 29 d0             	sub    %rdx,%rax
    103c:	4c 89 ea             	mov    %r13,%rdx
    103f:	48 8d b8 00 00 00 00 	lea    0x0(%rax),%rdi
    1046:	e8 00 00 00 00       	callq  104b <__scif_close+0x54b>
		spin_lock(&ep->lock);
		spin_unlock(&ms_info.mi_eplock);

		// Remove and reject any pending connection requests.
		while (ep->conreqcnt) {
			conreq = list_first_entry(&ep->conlist, struct conreq, list);
    104b:	48 8d 7b d0          	lea    -0x30(%rbx),%rdi
			 * If the remote node is lost we still want free the connection
			 * requests on the self node.
			 */
			micscif_nodeqp_send(&scif_dev[conreq->msg.src.node], &msg, ep);

			ep->conreqcnt--;
    104f:	41 83 ad 58 01 00 00 	subl   $0x1,0x158(%r13)
    1056:	01 
			kfree(conreq);
    1057:	e8 00 00 00 00       	callq  105c <__scif_close+0x55c>

		spin_lock(&ep->lock);
		spin_unlock(&ms_info.mi_eplock);

		// Remove and reject any pending connection requests.
		while (ep->conreqcnt) {
    105c:	41 8b 85 58 01 00 00 	mov    0x158(%r13),%eax
    1063:	85 c0                	test   %eax,%eax
    1065:	0f 85 65 ff ff ff    	jne    fd0 <__scif_close+0x4d0>
			ep->conreqcnt--;
			kfree(conreq);
		}

		// If a kSCIF accept is waiting wake it up
		wake_up_interruptible(&ep->conwq);
    106b:	49 8d bd 88 01 00 00 	lea    0x188(%r13),%rdi
    1072:	31 c9                	xor    %ecx,%ecx
    1074:	ba 01 00 00 00       	mov    $0x1,%edx
    1079:	be 01 00 00 00       	mov    $0x1,%esi
    107e:	e8 00 00 00 00       	callq  1083 <__scif_close+0x583>
	raw_spin_unlock_irq(&lock->rlock);
}

static inline void spin_unlock_irqrestore(spinlock_t *lock, unsigned long flags)
{
	raw_spin_unlock_irqrestore(&lock->rlock, flags);
    1083:	4c 89 f6             	mov    %r14,%rsi
    1086:	4c 89 e7             	mov    %r12,%rdi
    1089:	e8 00 00 00 00       	callq  108e <__scif_close+0x58e>
    108e:	e9 d5 fb ff ff       	jmpq   c68 <__scif_close+0x168>
    1093:	0f 1f 44 00 00       	nopl   0x0(%rax,%rax,1)
	case SCIFEP_CLOSING:
	{
		struct nodemsg msg;
		struct endpt *fep = NULL;
		struct endpt *tmpep;
		unsigned long ts = jiffies;
    1098:	48 8b 05 00 00 00 00 	mov    0x0(%rip),%rax        # 109f <__scif_close+0x59f>
		struct list_head *pos, *tmpq;

		// Very short time before mapping completes and state becomes connected
		// and does a standard teardown.
		ts = jiffies;
    109f:	48 8b 05 00 00 00 00 	mov    0x0(%rip),%rax        # 10a6 <__scif_close+0x5a6>
		while (ep->state == SCIFEP_MAPPING) {
    10a6:	eb 27                	jmp    10cf <__scif_close+0x5cf>
    10a8:	0f 1f 84 00 00 00 00 	nopl   0x0(%rax,%rax,1)
    10af:	00 
	asm volatile("delay %0" :: "r" (1) : "memory");
#else
	asm volatile("delay %0" :: "r" (1000) : "memory");
#endif
#else
	asm volatile("rep; nop" ::: "memory");
    10b0:	f3 90                	pause  
			cpu_relax();
			if (time_after((unsigned long)jiffies,ts + NODE_ALIVE_TIMEOUT)) {
    10b2:	6b 15 00 00 00 00 64 	imul   $0x64,0x0(%rip),%edx        # 10b9 <__scif_close+0x5b9>
    10b9:	48 8b 0d 00 00 00 00 	mov    0x0(%rip),%rcx        # 10c0 <__scif_close+0x5c0>
    10c0:	48 63 d2             	movslq %edx,%rdx
    10c3:	48 01 c2             	add    %rax,%rdx
    10c6:	48 39 ca             	cmp    %rcx,%rdx
    10c9:	0f 88 8c fa ff ff    	js     b5b <__scif_close+0x5b>
		struct list_head *pos, *tmpq;

		// Very short time before mapping completes and state becomes connected
		// and does a standard teardown.
		ts = jiffies;
		while (ep->state == SCIFEP_MAPPING) {
    10cf:	41 8b 55 00          	mov    0x0(%r13),%edx
    10d3:	83 fa 06             	cmp    $0x6,%edx
    10d6:	74 d8                	je     10b0 <__scif_close+0x5b0>
    10d8:	e9 ab fa ff ff       	jmpq   b88 <__scif_close+0x88>
    10dd:	0f 1f 00             	nopl   (%rax)
    10e0:	48 89 c6             	mov    %rax,%rsi
    10e3:	4c 89 e7             	mov    %r12,%rdi
    10e6:	e8 00 00 00 00       	callq  10eb <__scif_close+0x5eb>
		wake_up_interruptible(&ep->conwq);
		spin_unlock_irqrestore(&ep->lock, sflags);
		break;
	}
	}
	if (ep->port.port && !ep->accepted_ep)
    10eb:	41 0f b7 45 08       	movzwl 0x8(%r13),%eax
    10f0:	66 85 c0             	test   %ax,%ax
    10f3:	0f 84 7f fb ff ff    	je     c78 <__scif_close+0x178>
    10f9:	e9 d2 fb ff ff       	jmpq   cd0 <__scif_close+0x1d0>
    10fe:	66 90                	xchg   %ax,%ax
			// the end point can be removed from the list.  Therefore
			// the ep lock is not locked, traverse the disconnected list
			// to find the endpoint, release the conn lock and
			// proceed to teardown the end point below.
			list_for_each_safe(pos, tmpq, &ms_info.mi_disconnected) {
				tmpep = list_entry(pos, struct endpt, list);
    1100:	48 8d 88 c0 fd ff ff 	lea    -0x240(%rax),%rcx
				if (tmpep == ep) {
    1107:	49 39 cd             	cmp    %rcx,%r13
    110a:	0f 84 20 fb ff ff    	je     c30 <__scif_close+0x130>
			// The other side has completed the disconnect before
			// the end point can be removed from the list.  Therefore
			// the ep lock is not locked, traverse the disconnected list
			// to find the endpoint, release the conn lock and
			// proceed to teardown the end point below.
			list_for_each_safe(pos, tmpq, &ms_info.mi_disconnected) {
    1110:	48 89 d0             	mov    %rdx,%rax
    1113:	48 3d 00 00 00 00    	cmp    $0x0,%rax
    1119:	48 8b 10             	mov    (%rax),%rdx
    111c:	75 e2                	jne    1100 <__scif_close+0x600>
    111e:	e9 33 fb ff ff       	jmpq   c56 <__scif_close+0x156>
			}
			spin_unlock_irqrestore(&ms_info.mi_eplock, sflags);
			spin_lock_irqsave(&ms_info.mi_connlock, sflags);
			list_for_each_safe(pos, tmpq, &ms_info.mi_connected) {
				tmpep = list_entry(pos, struct endpt, list);
				if (tmpep == aep) {
    1123:	48 89 ca             	mov    %rcx,%rdx
    1126:	48 89 f9             	mov    %rdi,%rcx
    1129:	0f 1f 80 00 00 00 00 	nopl   0x0(%rax)
	__list_del(entry->prev, entry->next);
}

static inline void list_del(struct list_head *entry)
{
	__list_del(entry->prev, entry->next);
    1130:	48 8b 71 08          	mov    0x8(%rcx),%rsi
 * This is only for internal list manipulation where we know
 * the prev/next entries already!
 */
static inline void __list_del(struct list_head * prev, struct list_head * next)
{
	next->prev = prev;
    1134:	48 89 72 08          	mov    %rsi,0x8(%rdx)
	prev->next = next;
    1138:	48 89 16             	mov    %rdx,(%rsi)
}

static inline void list_del(struct list_head *entry)
{
	__list_del(entry->prev, entry->next);
	entry->next = LIST_POISON1;
    113b:	48 be 00 01 10 00 00 	movabs $0xdead000000100100,%rsi
    1142:	00 ad de 
    1145:	48 89 31             	mov    %rsi,(%rcx)
	entry->prev = LIST_POISON2;
    1148:	48 be 00 02 20 00 00 	movabs $0xdead000000200200,%rsi
    114f:	00 ad de 
    1152:	48 89 71 08          	mov    %rsi,0x8(%rcx)
					list_del(pos);
					put_conn_count(aep->remote_dev);
    1156:	49 8b 8f e0 fe ff ff 	mov    -0x120(%r15),%rcx
 * to synchronize calling this API with get_conn_count.
 */
static __always_inline void
put_conn_count(struct micscif_dev *dev)
{
	dev->num_active_conn--;
    115d:	8b b1 dc 01 00 00    	mov    0x1dc(%rcx),%esi
    1163:	8d 56 ff             	lea    -0x1(%rsi),%edx
	BUG_ON(dev->num_active_conn < 0);
    1166:	85 d2                	test   %edx,%edx
 * to synchronize calling this API with get_conn_count.
 */
static __always_inline void
put_conn_count(struct micscif_dev *dev)
{
	dev->num_active_conn--;
    1168:	89 91 dc 01 00 00    	mov    %edx,0x1dc(%rcx)
	BUG_ON(dev->num_active_conn < 0);
    116e:	0f 89 ab fd ff ff    	jns    f1f <__scif_close+0x41f>
    1174:	0f 0b                	ud2    
			list_del(&aep->liacceptlist);
			if (aep->port.port && !aep->accepted_ep)
				put_scif_port(aep->port.port);
			list_for_each_safe(pos, tmpq, &ms_info.mi_uaccept) {
				tmpep = list_entry(pos, struct endpt, miacceptlist);
				if (tmpep == aep) {
    1176:	48 89 c8             	mov    %rcx,%rax
    1179:	48 89 d1             	mov    %rdx,%rcx
    117c:	0f 1f 40 00          	nopl   0x0(%rax)
	__list_del(entry->prev, entry->next);
}

static inline void list_del(struct list_head *entry)
{
	__list_del(entry->prev, entry->next);
    1180:	48 8b 51 08          	mov    0x8(%rcx),%rdx
 * This is only for internal list manipulation where we know
 * the prev/next entries already!
 */
static inline void __list_del(struct list_head * prev, struct list_head * next)
{
	next->prev = prev;
    1184:	48 89 50 08          	mov    %rdx,0x8(%rax)
	prev->next = next;
    1188:	48 89 02             	mov    %rax,(%rdx)
}

static inline void list_del(struct list_head *entry)
{
	__list_del(entry->prev, entry->next);
	entry->next = LIST_POISON1;
    118b:	48 b8 00 01 10 00 00 	movabs $0xdead000000100100,%rax
    1192:	00 ad de 
    1195:	48 89 01             	mov    %rax,(%rcx)
	entry->prev = LIST_POISON2;
    1198:	48 b8 00 02 20 00 00 	movabs $0xdead000000200200,%rax
    119f:	00 ad de 
    11a2:	48 89 41 08          	mov    %rax,0x8(%rcx)
    11a6:	e9 14 fd ff ff       	jmpq   ebf <__scif_close+0x3bf>
					break;
				}
			}
			list_for_each_safe(pos, tmpq, &ms_info.mi_disconnected) {
				tmpep = list_entry(pos, struct endpt, list);
				if (tmpep == aep) {
    11ab:	48 89 ca             	mov    %rcx,%rdx
    11ae:	48 89 f1             	mov    %rsi,%rcx
    11b1:	0f 1f 80 00 00 00 00 	nopl   0x0(%rax)
	__list_del(entry->prev, entry->next);
}

static inline void list_del(struct list_head *entry)
{
	__list_del(entry->prev, entry->next);
    11b8:	48 8b 71 08          	mov    0x8(%rcx),%rsi
 * This is only for internal list manipulation where we know
 * the prev/next entries already!
 */
static inline void __list_del(struct list_head * prev, struct list_head * next)
{
	next->prev = prev;
    11bc:	48 89 72 08          	mov    %rsi,0x8(%rdx)
	prev->next = next;
    11c0:	48 89 16             	mov    %rdx,(%rsi)
}

static inline void list_del(struct list_head *entry)
{
	__list_del(entry->prev, entry->next);
	entry->next = LIST_POISON1;
    11c3:	48 be 00 01 10 00 00 	movabs $0xdead000000100100,%rsi
    11ca:	00 ad de 
    11cd:	48 89 31             	mov    %rsi,(%rcx)
	entry->prev = LIST_POISON2;
    11d0:	48 be 00 02 20 00 00 	movabs $0xdead000000200200,%rsi
    11d7:	00 ad de 
    11da:	48 89 71 08          	mov    %rsi,0x8(%rcx)
    11de:	e9 84 fd ff ff       	jmpq   f67 <__scif_close+0x467>
		micscif_unregister_all_windows(epd);
		// Remove from the disconnected list
		spin_lock_irqsave(&ms_info.mi_connlock, sflags);
		list_for_each_safe(pos, tmpq, &ms_info.mi_disconnected) {
			tmpep = list_entry(pos, struct endpt, list);
			if (tmpep == ep) {
    11e3:	48 89 d1             	mov    %rdx,%rcx
    11e6:	48 89 fa             	mov    %rdi,%rdx
    11e9:	0f 1f 80 00 00 00 00 	nopl   0x0(%rax)
	__list_del(entry->prev, entry->next);
}

static inline void list_del(struct list_head *entry)
{
	__list_del(entry->prev, entry->next);
    11f0:	48 8b 72 08          	mov    0x8(%rdx),%rsi
    11f4:	48 c7 c7 00 00 00 00 	mov    $0x0,%rdi
 * This is only for internal list manipulation where we know
 * the prev/next entries already!
 */
static inline void __list_del(struct list_head * prev, struct list_head * next)
{
	next->prev = prev;
    11fb:	48 89 71 08          	mov    %rsi,0x8(%rcx)
	prev->next = next;
    11ff:	48 89 0e             	mov    %rcx,(%rsi)
}

static inline void list_del(struct list_head *entry)
{
	__list_del(entry->prev, entry->next);
	entry->next = LIST_POISON1;
    1202:	48 be 00 01 10 00 00 	movabs $0xdead000000100100,%rsi
    1209:	00 ad de 
    120c:	48 89 32             	mov    %rsi,(%rdx)
	entry->prev = LIST_POISON2;
    120f:	48 be 00 02 20 00 00 	movabs $0xdead000000200200,%rsi
    1216:	00 ad de 
    1219:	48 89 72 08          	mov    %rsi,0x8(%rdx)
    121d:	48 89 c6             	mov    %rax,%rsi
    1220:	e8 00 00 00 00       	callq  1225 <__scif_close+0x725>
    1225:	e9 34 fb ff ff       	jmpq   d5e <__scif_close+0x25e>
    122a:	66 0f 1f 44 00 00    	nopw   0x0(%rax,%rax,1)
		while (ep->acceptcnt) {
			aep = list_first_entry(&ep->li_accept, struct endpt, liacceptlist);
			BUG_ON(!aep);
			list_del(&aep->liacceptlist);
			if (aep->port.port && !aep->accepted_ep)
				put_scif_port(aep->port.port);
    1230:	0f b7 f8             	movzwl %ax,%edi
    1233:	e8 00 00 00 00       	callq  1238 <__scif_close+0x738>
    1238:	e9 3e fc ff ff       	jmpq   e7b <__scif_close+0x37b>
    123d:	0f 1f 00             	nopl   (%rax)
 * Atomically reads the value of @v.
 * Doesn't imply a read memory barrier.
 */
static inline long atomic64_read(const atomic64_t *v)
{
	return (*(volatile long *)&(v)->counter);
    1240:	48 8b 8b 88 01 00 00 	mov    0x188(%rbx),%rcx
 */
static __always_inline void
micscif_inc_node_refcnt(struct micscif_dev *dev, long cnt)
{
#ifdef SCIF_ENABLE_PM
	if (unlikely(dev && !atomic_long_add_unless(&dev->scif_ref_cnt, 
    1247:	48 8d bb 88 01 00 00 	lea    0x188(%rbx),%rdi
static inline int atomic64_add_unless(atomic64_t *v, long a, long u)
{
	long c, old;
	c = atomic64_read(v);
	for (;;) {
		if (unlikely(c == (u)))
    124e:	48 be 00 00 00 00 00 	movabs $0x8000000000000000,%rsi
    1255:	00 00 80 
    1258:	48 39 f1             	cmp    %rsi,%rcx
    125b:	74 3e                	je     129b <__scif_close+0x79b>
			break;
		old = atomic64_cmpxchg((v), c, c + (a));
    125d:	48 8d 51 01          	lea    0x1(%rcx),%rdx
#define atomic64_inc_return(v)  (atomic64_add_return(1, (v)))
#define atomic64_dec_return(v)  (atomic64_sub_return(1, (v)))

static inline long atomic64_cmpxchg(atomic64_t *v, long old, long new)
{
	return cmpxchg(&v->counter, old, new);
    1261:	48 89 c8             	mov    %rcx,%rax
    1264:	f0 48 0f b1 93 88 01 	lock cmpxchg %rdx,0x188(%rbx)
    126b:	00 00 
	c = atomic64_read(v);
	for (;;) {
		if (unlikely(c == (u)))
			break;
		old = atomic64_cmpxchg((v), c, c + (a));
		if (likely(old == c))
    126d:	48 39 c8             	cmp    %rcx,%rax
#define atomic64_inc_return(v)  (atomic64_add_return(1, (v)))
#define atomic64_dec_return(v)  (atomic64_sub_return(1, (v)))

static inline long atomic64_cmpxchg(atomic64_t *v, long old, long new)
{
	return cmpxchg(&v->counter, old, new);
    1270:	48 89 c2             	mov    %rax,%rdx
	c = atomic64_read(v);
	for (;;) {
		if (unlikely(c == (u)))
			break;
		old = atomic64_cmpxchg((v), c, c + (a));
		if (likely(old == c))
    1273:	0f 84 b7 f8 ff ff    	je     b30 <__scif_close+0x30>
static inline int atomic64_add_unless(atomic64_t *v, long a, long u)
{
	long c, old;
	c = atomic64_read(v);
	for (;;) {
		if (unlikely(c == (u)))
    1279:	48 39 f2             	cmp    %rsi,%rdx
    127c:	74 1d                	je     129b <__scif_close+0x79b>
			break;
		old = atomic64_cmpxchg((v), c, c + (a));
    127e:	48 8d 4a 01          	lea    0x1(%rdx),%rcx
#define atomic64_inc_return(v)  (atomic64_add_return(1, (v)))
#define atomic64_dec_return(v)  (atomic64_sub_return(1, (v)))

static inline long atomic64_cmpxchg(atomic64_t *v, long old, long new)
{
	return cmpxchg(&v->counter, old, new);
    1282:	48 89 d0             	mov    %rdx,%rax
    1285:	f0 48 0f b1 0f       	lock cmpxchg %rcx,(%rdi)
	c = atomic64_read(v);
	for (;;) {
		if (unlikely(c == (u)))
			break;
		old = atomic64_cmpxchg((v), c, c + (a));
		if (likely(old == c))
    128a:	48 39 d0             	cmp    %rdx,%rax
    128d:	0f 84 9d f8 ff ff    	je     b30 <__scif_close+0x30>
    1293:	48 89 c2             	mov    %rax,%rdx
static inline int atomic64_add_unless(atomic64_t *v, long a, long u)
{
	long c, old;
	c = atomic64_read(v);
	for (;;) {
		if (unlikely(c == (u)))
    1296:	48 39 f2             	cmp    %rsi,%rdx
    1299:	75 e3                	jne    127e <__scif_close+0x77e>
		cnt, SCIF_NODE_IDLE))) {
		/*
		 * This code path would not be entered unless the remote
		 * SCIF device has actually been put to sleep by the host.
		 */
		mutex_lock(&dev->sd_lock);
    129b:	4c 8d a3 68 01 00 00 	lea    0x168(%rbx),%r12
    12a2:	4c 89 e7             	mov    %r12,%rdi
    12a5:	e8 00 00 00 00       	callq  12aa <__scif_close+0x7aa>
		if (SCIFDEV_STOPPED == dev->sd_state ||
    12aa:	8b 43 04             	mov    0x4(%rbx),%eax
			SCIFDEV_STOPPING == dev->sd_state ||
    12ad:	8d 50 fc             	lea    -0x4(%rax),%edx
		/*
		 * This code path would not be entered unless the remote
		 * SCIF device has actually been put to sleep by the host.
		 */
		mutex_lock(&dev->sd_lock);
		if (SCIFDEV_STOPPED == dev->sd_state ||
    12b0:	83 fa 01             	cmp    $0x1,%edx
    12b3:	76 1e                	jbe    12d3 <__scif_close+0x7d3>
    12b5:	83 f8 01             	cmp    $0x1,%eax
    12b8:	74 19                	je     12d3 <__scif_close+0x7d3>
}

static __always_inline int constant_test_bit(unsigned int nr, const volatile unsigned long *addr)
{
	return ((1UL << (nr % BITS_PER_LONG)) &
		(addr[nr / BITS_PER_LONG])) != 0;
    12ba:	48 8b 83 88 01 00 00 	mov    0x188(%rbx),%rax
			SCIFDEV_STOPPING == dev->sd_state ||
			SCIFDEV_INIT == dev->sd_state)
			goto bail_out;
		if (test_bit(SCIF_NODE_MAGIC_BIT, 
    12c1:	48 85 c0             	test   %rax,%rax
    12c4:	0f 88 00 02 00 00    	js     14ca <__scif_close+0x9ca>
 *
 * Atomically adds @i to @v.
 */
static inline void atomic64_add(long i, atomic64_t *v)
{
	asm volatile(LOCK_PREFIX "addq %1,%0"
    12ca:	f0 48 83 83 88 01 00 	lock addq $0x1,0x188(%rbx)
    12d1:	00 01 
			}
		}
		/* The ref count was not added if the node was idle. */
		atomic_long_add(cnt, &dev->scif_ref_cnt);
bail_out:
		mutex_unlock(&dev->sd_lock);
    12d3:	4c 89 e7             	mov    %r12,%rdi
    12d6:	e8 00 00 00 00       	callq  12db <__scif_close+0x7db>
    12db:	e9 50 f8 ff ff       	jmpq   b30 <__scif_close+0x30>
			}
		}
		// Remove any dangling accepts
		while (ep->acceptcnt) {
			aep = list_first_entry(&ep->li_accept, struct endpt, liacceptlist);
			BUG_ON(!aep);
    12e0:	0f 0b                	ud2    

		// Remove from the connected list
		spin_lock_irqsave(&ms_info.mi_connlock, sflags);
		list_for_each_safe(pos, tmpq, &ms_info.mi_connected) {
			tmpep = list_entry(pos, struct endpt, list);
			if (tmpep == ep) {
    12e2:	48 89 d0             	mov    %rdx,%rax
    12e5:	48 89 ca             	mov    %rcx,%rdx
	__list_del(entry->prev, entry->next);
}

static inline void list_del(struct list_head *entry)
{
	__list_del(entry->prev, entry->next);
    12e8:	48 8b 4a 08          	mov    0x8(%rdx),%rcx
 * This is only for internal list manipulation where we know
 * the prev/next entries already!
 */
static inline void __list_del(struct list_head * prev, struct list_head * next)
{
	next->prev = prev;
    12ec:	48 89 48 08          	mov    %rcx,0x8(%rax)
	prev->next = next;
    12f0:	48 89 01             	mov    %rax,(%rcx)
}

static inline void list_del(struct list_head *entry)
{
	__list_del(entry->prev, entry->next);
	entry->next = LIST_POISON1;
    12f3:	48 b8 00 01 10 00 00 	movabs $0xdead000000100100,%rax
    12fa:	00 ad de 
    12fd:	48 89 02             	mov    %rax,(%rdx)
	entry->prev = LIST_POISON2;
    1300:	48 b8 00 02 20 00 00 	movabs $0xdead000000200200,%rax
    1307:	00 ad de 
    130a:	48 89 42 08          	mov    %rax,0x8(%rdx)
				list_del(pos);
				put_conn_count(ep->remote_dev);
    130e:	49 8b 95 48 01 00 00 	mov    0x148(%r13),%rdx
    1315:	83 aa dc 01 00 00 01 	subl   $0x1,0x1dc(%rdx)
    131c:	0f 88 52 fe ff ff    	js     1174 <__scif_close+0x674>
	raw_spin_lock_init(&(_lock)->rlock);		\
} while (0)

static inline void spin_lock(spinlock_t *lock)
{
	raw_spin_lock(&lock->rlock);
    1322:	4c 89 e7             	mov    %r12,%rdi
    1325:	e8 00 00 00 00       	callq  132a <__scif_close+0x82a>
				spin_lock(&ep->lock);
				break;
			}
		}

		if (fep == NULL) {
    132a:	4d 85 ff             	test   %r15,%r15
    132d:	0f 84 d4 f8 ff ff    	je     c07 <__scif_close+0x107>
    1333:	fe 05 00 00 00 00    	incb   0x0(%rip)        # 1339 <__scif_close+0x839>

		spin_unlock(&ms_info.mi_connlock);

		// Now we are free to close out the connection
		msg.uop = SCIF_DISCNCT;
		msg.src = ep->port;
    1339:	41 8b 45 06          	mov    0x6(%r13),%eax
		msg.dst = ep->peer;
		msg.payload[0] = (uint64_t)ep;
		msg.payload[1] = ep->remote_ep;

		err = micscif_nodeqp_send(ep->remote_dev, &msg, ep);
    133d:	48 8d 75 a4          	lea    -0x5c(%rbp),%rsi
    1341:	4c 89 ea             	mov    %r13,%rdx

		// Now we are free to close out the connection
		msg.uop = SCIF_DISCNCT;
		msg.src = ep->port;
		msg.dst = ep->peer;
		msg.payload[0] = (uint64_t)ep;
    1344:	4c 89 6d b0          	mov    %r13,-0x50(%rbp)
		msg.payload[1] = ep->remote_ep;

		err = micscif_nodeqp_send(ep->remote_dev, &msg, ep);
    1348:	49 8b bd 48 01 00 00 	mov    0x148(%r13),%rdi
		}

		spin_unlock(&ms_info.mi_connlock);

		// Now we are free to close out the connection
		msg.uop = SCIF_DISCNCT;
    134f:	c7 45 ac 0c 00 00 00 	movl   $0xc,-0x54(%rbp)
		msg.src = ep->port;
    1356:	89 45 a4             	mov    %eax,-0x5c(%rbp)
		msg.dst = ep->peer;
    1359:	41 8b 45 0a          	mov    0xa(%r13),%eax
    135d:	89 45 a8             	mov    %eax,-0x58(%rbp)
		msg.payload[0] = (uint64_t)ep;
		msg.payload[1] = ep->remote_ep;
    1360:	49 8b 85 50 01 00 00 	mov    0x150(%r13),%rax
    1367:	48 89 45 b8          	mov    %rax,-0x48(%rbp)

		err = micscif_nodeqp_send(ep->remote_dev, &msg, ep);
    136b:	e8 00 00 00 00       	callq  1370 <__scif_close+0x870>
	raw_spin_unlock_irq(&lock->rlock);
}

static inline void spin_unlock_irqrestore(spinlock_t *lock, unsigned long flags)
{
	raw_spin_unlock_irqrestore(&lock->rlock, flags);
    1370:	48 89 de             	mov    %rbx,%rsi
    1373:	4c 89 e7             	mov    %r12,%rdi
    1376:	41 89 c7             	mov    %eax,%r15d
    1379:	e8 00 00 00 00       	callq  137e <__scif_close+0x87e>
		spin_unlock_irqrestore(&ep->lock, sflags);

		if (!err)
    137e:	45 85 ff             	test   %r15d,%r15d
    1381:	0f 85 85 00 00 00    	jne    140c <__scif_close+0x90c>
			/* Now wait for the remote node to respond */
			wait_event_timeout(ep->disconwq, 
    1387:	41 8b 55 00          	mov    0x0(%r13),%edx
    138b:	8b 05 00 00 00 00    	mov    0x0(%rip),%eax        # 1391 <__scif_close+0x891>
    1391:	83 fa 09             	cmp    $0x9,%edx
    1394:	74 76                	je     140c <__scif_close+0x90c>
    1396:	6b c0 64             	imul   $0x64,%eax,%eax
    1399:	4c 8d bd 78 ff ff ff 	lea    -0x88(%rbp),%r15
    13a0:	48 c7 85 78 ff ff ff 	movq   $0x0,-0x88(%rbp)
    13a7:	00 00 00 00 
    13ab:	48 c7 45 88 00 00 00 	movq   $0x0,-0x78(%rbp)
    13b2:	00 
    13b3:	48 63 d8             	movslq %eax,%rbx
    13b6:	65 48 8b 04 25 00 00 	mov    %gs:0x0,%rax
    13bd:	00 00 
    13bf:	48 89 45 80          	mov    %rax,-0x80(%rbp)
    13c3:	49 8d 47 18          	lea    0x18(%r15),%rax
    13c7:	48 89 45 90          	mov    %rax,-0x70(%rbp)
    13cb:	48 89 45 98          	mov    %rax,-0x68(%rbp)
    13cf:	eb 17                	jmp    13e8 <__scif_close+0x8e8>
    13d1:	0f 1f 80 00 00 00 00 	nopl   0x0(%rax)
    13d8:	48 89 df             	mov    %rbx,%rdi
    13db:	e8 00 00 00 00       	callq  13e0 <__scif_close+0x8e0>
    13e0:	48 85 c0             	test   %rax,%rax
    13e3:	48 89 c3             	mov    %rax,%rbx
    13e6:	74 19                	je     1401 <__scif_close+0x901>
    13e8:	ba 02 00 00 00       	mov    $0x2,%edx
    13ed:	4c 89 fe             	mov    %r15,%rsi
    13f0:	4c 89 f7             	mov    %r14,%rdi
    13f3:	e8 00 00 00 00       	callq  13f8 <__scif_close+0x8f8>
    13f8:	41 8b 45 00          	mov    0x0(%r13),%eax
    13fc:	83 f8 09             	cmp    $0x9,%eax
    13ff:	75 d7                	jne    13d8 <__scif_close+0x8d8>
    1401:	4c 89 fe             	mov    %r15,%rsi
    1404:	4c 89 f7             	mov    %r14,%rdi
    1407:	e8 00 00 00 00       	callq  140c <__scif_close+0x90c>
		 * Grab and release the ep lock to synchronize with the
		 * thread waking us up. If we dont grab this lock, then
		 * the ep might be freed before the wakeup completes
		 * resulting in potential memory corruption.
		 */
		spin_lock_irqsave(&ep->lock, sflags);
    140c:	4c 89 e7             	mov    %r12,%rdi
    140f:	e8 00 00 00 00       	callq  1414 <__scif_close+0x914>
    1414:	4c 89 e7             	mov    %r12,%rdi
    1417:	48 89 c6             	mov    %rax,%rsi
    141a:	e8 00 00 00 00       	callq  141f <__scif_close+0x91f>
		wake_up_interruptible(&ep->conwq);
		spin_unlock_irqrestore(&ep->lock, sflags);
		break;
	}
	}
	if (ep->port.port && !ep->accepted_ep)
    141f:	41 0f b7 45 08       	movzwl 0x8(%r13),%eax
    1424:	66 85 c0             	test   %ax,%ax
    1427:	0f 84 4b f8 ff ff    	je     c78 <__scif_close+0x178>
    142d:	e9 9e f8 ff ff       	jmpq   cd0 <__scif_close+0x1d0>
{
#ifdef SCIF_ENABLE_PM
	if (dev) {
		if (unlikely((atomic_long_sub_return(cnt, 
			&dev->scif_ref_cnt)) < 0)) {
			printk(KERN_ERR "%s %d dec dev %p node %d ref %ld "
    1432:	48 8b 45 08          	mov    0x8(%rbp),%rax
    1436:	48 89 d9             	mov    %rbx,%rcx
    1439:	ba a7 00 00 00       	mov    $0xa7,%edx
    143e:	48 c7 c6 00 00 00 00 	mov    $0x0,%rsi
 * Atomically reads the value of @v.
 * Doesn't imply a read memory barrier.
 */
static inline long atomic64_read(const atomic64_t *v)
{
	return (*(volatile long *)&(v)->counter);
    1445:	4c 8b 8b 88 01 00 00 	mov    0x188(%rbx),%r9
    144c:	48 c7 c7 00 00 00 00 	mov    $0x0,%rdi
    1453:	44 0f b7 03          	movzwl (%rbx),%r8d
    1457:	48 89 04 24          	mov    %rax,(%rsp)
    145b:	31 c0                	xor    %eax,%eax
    145d:	e8 00 00 00 00       	callq  1462 <__scif_close+0x962>
    1462:	48 8b 8b 88 01 00 00 	mov    0x188(%rbx),%rcx
static inline int atomic64_add_unless(atomic64_t *v, long a, long u)
{
	long c, old;
	c = atomic64_read(v);
	for (;;) {
		if (unlikely(c == (u)))
    1469:	48 be 00 00 00 00 00 	movabs $0x8000000000000000,%rsi
    1470:	00 00 80 
    1473:	48 39 f1             	cmp    %rsi,%rcx
    1476:	0f 84 29 f8 ff ff    	je     ca5 <__scif_close+0x1a5>
			break;
		old = atomic64_cmpxchg((v), c, c + (a));
    147c:	48 8d 51 01          	lea    0x1(%rcx),%rdx
#define atomic64_inc_return(v)  (atomic64_add_return(1, (v)))
#define atomic64_dec_return(v)  (atomic64_sub_return(1, (v)))

static inline long atomic64_cmpxchg(atomic64_t *v, long old, long new)
{
	return cmpxchg(&v->counter, old, new);
    1480:	48 89 c8             	mov    %rcx,%rax
    1483:	f0 48 0f b1 93 88 01 	lock cmpxchg %rdx,0x188(%rbx)
    148a:	00 00 
	c = atomic64_read(v);
	for (;;) {
		if (unlikely(c == (u)))
			break;
		old = atomic64_cmpxchg((v), c, c + (a));
		if (likely(old == c))
    148c:	48 39 c8             	cmp    %rcx,%rax
#define atomic64_inc_return(v)  (atomic64_add_return(1, (v)))
#define atomic64_dec_return(v)  (atomic64_sub_return(1, (v)))

static inline long atomic64_cmpxchg(atomic64_t *v, long old, long new)
{
	return cmpxchg(&v->counter, old, new);
    148f:	48 89 c2             	mov    %rax,%rdx
	c = atomic64_read(v);
	for (;;) {
		if (unlikely(c == (u)))
			break;
		old = atomic64_cmpxchg((v), c, c + (a));
		if (likely(old == c))
    1492:	0f 84 0d f8 ff ff    	je     ca5 <__scif_close+0x1a5>
static inline int atomic64_add_unless(atomic64_t *v, long a, long u)
{
	long c, old;
	c = atomic64_read(v);
	for (;;) {
		if (unlikely(c == (u)))
    1498:	48 39 f2             	cmp    %rsi,%rdx
    149b:	0f 84 04 f8 ff ff    	je     ca5 <__scif_close+0x1a5>
			break;
		old = atomic64_cmpxchg((v), c, c + (a));
    14a1:	48 8d 4a 01          	lea    0x1(%rdx),%rcx
#define atomic64_inc_return(v)  (atomic64_add_return(1, (v)))
#define atomic64_dec_return(v)  (atomic64_sub_return(1, (v)))

static inline long atomic64_cmpxchg(atomic64_t *v, long old, long new)
{
	return cmpxchg(&v->counter, old, new);
    14a5:	48 89 d0             	mov    %rdx,%rax
    14a8:	f0 49 0f b1 0c 24    	lock cmpxchg %rcx,(%r12)
	c = atomic64_read(v);
	for (;;) {
		if (unlikely(c == (u)))
			break;
		old = atomic64_cmpxchg((v), c, c + (a));
		if (likely(old == c))
    14ae:	48 39 d0             	cmp    %rdx,%rax
    14b1:	0f 84 ee f7 ff ff    	je     ca5 <__scif_close+0x1a5>
    14b7:	48 89 c2             	mov    %rax,%rdx
static inline int atomic64_add_unless(atomic64_t *v, long a, long u)
{
	long c, old;
	c = atomic64_read(v);
	for (;;) {
		if (unlikely(c == (u)))
    14ba:	48 39 f2             	cmp    %rsi,%rdx
    14bd:	75 e2                	jne    14a1 <__scif_close+0x9a1>
    14bf:	e9 e1 f7 ff ff       	jmpq   ca5 <__scif_close+0x1a5>
    14c4:	0f 1f 40 00          	nopl   0x0(%rax)

	ep->state = SCIFEP_CLOSING;

	switch (oldstate) {
	case SCIFEP_ZOMBIE:
		BUG_ON(SCIFEP_ZOMBIE == oldstate);
    14c8:	0f 0b                	ud2    
			/* Notify host that the remote node must be woken */
			struct nodemsg notif_msg;

			dev->sd_wait_status = OP_IN_PROGRESS;
			notif_msg.uop = SCIF_NODE_WAKE_UP;
			notif_msg.src.node = ms_info.mi_nodeid;
    14ca:	8b 05 00 00 00 00    	mov    0x0(%rip),%eax        # 14d0 <__scif_close+0x9d0>
			notif_msg.dst.node = SCIF_HOST_NODE;
			notif_msg.payload[0] = dev->sd_node;
			/* No error handling for Host SCIF device */
			micscif_nodeqp_send(&scif_dev[SCIF_HOST_NODE],
    14d0:	4c 8d 7d a4          	lea    -0x5c(%rbp),%r15
			struct nodemsg notif_msg;

			dev->sd_wait_status = OP_IN_PROGRESS;
			notif_msg.uop = SCIF_NODE_WAKE_UP;
			notif_msg.src.node = ms_info.mi_nodeid;
			notif_msg.dst.node = SCIF_HOST_NODE;
    14d4:	31 f6                	xor    %esi,%esi
			notif_msg.payload[0] = dev->sd_node;
			/* No error handling for Host SCIF device */
			micscif_nodeqp_send(&scif_dev[SCIF_HOST_NODE],
    14d6:	31 d2                	xor    %edx,%edx
		if (test_bit(SCIF_NODE_MAGIC_BIT, 
			&dev->scif_ref_cnt.counter)) {
			/* Notify host that the remote node must be woken */
			struct nodemsg notif_msg;

			dev->sd_wait_status = OP_IN_PROGRESS;
    14d8:	48 c7 83 b0 01 00 00 	movq   $0x2,0x1b0(%rbx)
    14df:	02 00 00 00 
			notif_msg.uop = SCIF_NODE_WAKE_UP;
			notif_msg.src.node = ms_info.mi_nodeid;
			notif_msg.dst.node = SCIF_HOST_NODE;
			notif_msg.payload[0] = dev->sd_node;
			/* No error handling for Host SCIF device */
			micscif_nodeqp_send(&scif_dev[SCIF_HOST_NODE],
    14e3:	48 c7 c7 00 00 00 00 	mov    $0x0,%rdi
			struct nodemsg notif_msg;

			dev->sd_wait_status = OP_IN_PROGRESS;
			notif_msg.uop = SCIF_NODE_WAKE_UP;
			notif_msg.src.node = ms_info.mi_nodeid;
			notif_msg.dst.node = SCIF_HOST_NODE;
    14ea:	66 89 75 a8          	mov    %si,-0x58(%rbp)
			notif_msg.payload[0] = dev->sd_node;
			/* No error handling for Host SCIF device */
			micscif_nodeqp_send(&scif_dev[SCIF_HOST_NODE],
    14ee:	4c 89 fe             	mov    %r15,%rsi
			&dev->scif_ref_cnt.counter)) {
			/* Notify host that the remote node must be woken */
			struct nodemsg notif_msg;

			dev->sd_wait_status = OP_IN_PROGRESS;
			notif_msg.uop = SCIF_NODE_WAKE_UP;
    14f1:	c7 45 ac 2e 00 00 00 	movl   $0x2e,-0x54(%rbp)
			notif_msg.src.node = ms_info.mi_nodeid;
    14f8:	66 89 45 a4          	mov    %ax,-0x5c(%rbp)
			notif_msg.dst.node = SCIF_HOST_NODE;
			notif_msg.payload[0] = dev->sd_node;
    14fc:	0f b7 03             	movzwl (%rbx),%eax
    14ff:	48 89 45 b0          	mov    %rax,-0x50(%rbp)
			/* No error handling for Host SCIF device */
			micscif_nodeqp_send(&scif_dev[SCIF_HOST_NODE],
    1503:	e8 00 00 00 00       	callq  1508 <__scif_close+0xa08>
			/*
			 * A timeout is not required since only the cards can
			 * initiate this message. The Host is expected to be alive.
			 * If the host has crashed then so will the cards.
			 */
			wait_event(dev->sd_wq, 
    1508:	48 8b 83 b0 01 00 00 	mov    0x1b0(%rbx),%rax
    150f:	48 83 f8 02          	cmp    $0x2,%rax
    1513:	74 1e                	je     1533 <__scif_close+0xa33>
				dev->sd_wait_status != OP_IN_PROGRESS);
			/*
			 * Aieee! The host could not wake up the remote node.
			 * Bail out for now.
			 */
			if (dev->sd_wait_status == OP_COMPLETED) {
    1515:	48 83 f8 03          	cmp    $0x3,%rax
    1519:	0f 85 ab fd ff ff    	jne    12ca <__scif_close+0x7ca>
				dev->sd_state = SCIFDEV_RUNNING;
    151f:	c7 43 04 02 00 00 00 	movl   $0x2,0x4(%rbx)
 */
static __always_inline void
clear_bit(int nr, volatile unsigned long *addr)
{
	if (IS_IMMEDIATE(nr)) {
		asm volatile(LOCK_PREFIX "andb %1,%0"
    1526:	f0 80 a3 8f 01 00 00 	lock andb $0x7f,0x18f(%rbx)
    152d:	7f 
    152e:	e9 97 fd ff ff       	jmpq   12ca <__scif_close+0x7ca>
			/*
			 * A timeout is not required since only the cards can
			 * initiate this message. The Host is expected to be alive.
			 * If the host has crashed then so will the cards.
			 */
			wait_event(dev->sd_wq, 
    1533:	48 8d bd 78 ff ff ff 	lea    -0x88(%rbp),%rdi
    153a:	30 c0                	xor    %al,%al
    153c:	b9 0a 00 00 00       	mov    $0xa,%ecx
    1541:	f3 ab                	rep stos %eax,%es:(%rdi)
    1543:	4c 8d bd 78 ff ff ff 	lea    -0x88(%rbp),%r15
    154a:	48 c7 45 88 00 00 00 	movq   $0x0,-0x78(%rbp)
    1551:	00 
    1552:	65 48 8b 04 25 00 00 	mov    %gs:0x0,%rax
    1559:	00 00 
    155b:	48 89 45 80          	mov    %rax,-0x80(%rbp)
    155f:	49 8d 47 18          	lea    0x18(%r15),%rax
    1563:	48 89 45 90          	mov    %rax,-0x70(%rbp)
    1567:	4c 8d b3 98 01 00 00 	lea    0x198(%rbx),%r14
    156e:	48 89 45 98          	mov    %rax,-0x68(%rbp)
    1572:	ba 02 00 00 00       	mov    $0x2,%edx
    1577:	4c 89 fe             	mov    %r15,%rsi
    157a:	4c 89 f7             	mov    %r14,%rdi
    157d:	e8 00 00 00 00       	callq  1582 <__scif_close+0xa82>
    1582:	48 83 bb b0 01 00 00 	cmpq   $0x2,0x1b0(%rbx)
    1589:	02 
    158a:	75 07                	jne    1593 <__scif_close+0xa93>
    158c:	e8 00 00 00 00       	callq  1591 <__scif_close+0xa91>
    1591:	eb df                	jmp    1572 <__scif_close+0xa72>
    1593:	4c 89 fe             	mov    %r15,%rsi
    1596:	4c 89 f7             	mov    %r14,%rdi
    1599:	e8 00 00 00 00       	callq  159e <__scif_close+0xa9e>
    159e:	48 8b 83 b0 01 00 00 	mov    0x1b0(%rbx),%rax
    15a5:	e9 6b ff ff ff       	jmpq   1515 <__scif_close+0xa15>
    15aa:	66 0f 1f 44 00 00    	nopw   0x0(%rax,%rax,1)

00000000000015b0 <scif_ref_rel>:
	return 0;
}

void
scif_ref_rel(struct kref *kref_count)
{
    15b0:	55                   	push   %rbp
    15b1:	48 89 e5             	mov    %rsp,%rbp
    15b4:	e8 00 00 00 00       	callq  15b9 <scif_ref_rel+0x9>
	struct endpt *epd;
	epd = container_of(kref_count, struct endpt, ref_count);
    15b9:	48 81 ef 70 01 00 00 	sub    $0x170,%rdi
	__scif_close((scif_epd_t)epd);
    15c0:	e8 00 00 00 00       	callq  15c5 <scif_ref_rel+0x15>
}
    15c5:	5d                   	pop    %rbp
    15c6:	c3                   	retq   
    15c7:	66 0f 1f 84 00 00 00 	nopw   0x0(%rax,%rax,1)
    15ce:	00 00 

00000000000015d0 <__scif_flush>:
 * @epd:        The end point address returned from scif_open()
 *
 */
int
__scif_flush(scif_epd_t epd)
{
    15d0:	55                   	push   %rbp
    15d1:	48 89 e5             	mov    %rsp,%rbp
    15d4:	41 57                	push   %r15
    15d6:	41 56                	push   %r14
    15d8:	41 55                	push   %r13
    15da:	41 54                	push   %r12
    15dc:	53                   	push   %rbx
    15dd:	48 83 ec 78          	sub    $0x78,%rsp
    15e1:	e8 00 00 00 00       	callq  15e6 <__scif_flush+0x16>
    15e6:	48 89 fb             	mov    %rdi,%rbx
	struct endpt *tmpep;
	struct list_head *pos, *tmpq;
	unsigned long sflags;
	int err;

	might_sleep();
    15e9:	e8 00 00 00 00       	callq  15ee <__scif_flush+0x1e>
	micscif_inc_node_refcnt(ep->remote_dev, 1);
    15ee:	4c 8b a3 48 01 00 00 	mov    0x148(%rbx),%r12
 */
static __always_inline void
micscif_inc_node_refcnt(struct micscif_dev *dev, long cnt)
{
#ifdef SCIF_ENABLE_PM
	if (unlikely(dev && !atomic_long_add_unless(&dev->scif_ref_cnt, 
    15f5:	4d 85 e4             	test   %r12,%r12
    15f8:	0f 85 32 03 00 00    	jne    1930 <__scif_flush+0x360>
 * Map the spin_lock functions to the raw variants for PREEMPT_RT=n
 */

static inline raw_spinlock_t *spinlock_check(spinlock_t *lock)
{
	return &lock->rlock;
    15fe:	4c 8d 63 04          	lea    0x4(%rbx),%r12

	spin_lock_irqsave(&ep->lock, sflags);
    1602:	4c 89 e7             	mov    %r12,%rdi
    1605:	e8 00 00 00 00       	callq  160a <__scif_flush+0x3a>

	switch (ep->state) {
    160a:	8b 13                	mov    (%rbx),%edx
	int err;

	might_sleep();
	micscif_inc_node_refcnt(ep->remote_dev, 1);

	spin_lock_irqsave(&ep->lock, sflags);
    160c:	49 89 c6             	mov    %rax,%r14

	switch (ep->state) {
    160f:	83 fa 03             	cmp    $0x3,%edx
    1612:	0f 84 38 01 00 00    	je     1750 <__scif_flush+0x180>
    1618:	83 fa 04             	cmp    $0x4,%edx
    161b:	0f 85 df 00 00 00    	jne    1700 <__scif_flush+0x130>
	case SCIFEP_CONNECTED:
	{
		struct nodemsg msg;
		struct endpt *fep = NULL;

		init_waitqueue_head(&ep->disconwq);	// Wait for connection queue
    1621:	4c 8d ab a0 01 00 00 	lea    0x1a0(%rbx),%r13
    1628:	48 c7 c6 00 00 00 00 	mov    $0x0,%rsi
    162f:	4c 89 ef             	mov    %r13,%rdi
    1632:	e8 00 00 00 00       	callq  1637 <__scif_flush+0x67>
		WARN_ON(ep->files); // files should never be set while connected
    1637:	48 83 bb 68 01 00 00 	cmpq   $0x0,0x168(%rbx)
    163e:	00 
    163f:	0f 85 66 04 00 00    	jne    1aab <__scif_flush+0x4db>
	raw_spin_unlock_irq(&lock->rlock);
}

static inline void spin_unlock_irqrestore(spinlock_t *lock, unsigned long flags)
{
	raw_spin_unlock_irqrestore(&lock->rlock, flags);
    1645:	4c 89 f6             	mov    %r14,%rsi
    1648:	4c 89 e7             	mov    %r12,%rdi
    164b:	e8 00 00 00 00       	callq  1650 <__scif_flush+0x80>
		spin_unlock_irqrestore(&ep->lock, sflags);
		spin_lock_irqsave(&ms_info.mi_connlock, sflags);
    1650:	48 c7 c7 00 00 00 00 	mov    $0x0,%rdi
    1657:	e8 00 00 00 00       	callq  165c <__scif_flush+0x8c>

		list_for_each_safe(pos, tmpq, &ms_info.mi_connected) {
    165c:	48 8b 0d 00 00 00 00 	mov    0x0(%rip),%rcx        # 1663 <__scif_flush+0x93>
		struct endpt *fep = NULL;

		init_waitqueue_head(&ep->disconwq);	// Wait for connection queue
		WARN_ON(ep->files); // files should never be set while connected
		spin_unlock_irqrestore(&ep->lock, sflags);
		spin_lock_irqsave(&ms_info.mi_connlock, sflags);
    1663:	49 89 c6             	mov    %rax,%r14

		list_for_each_safe(pos, tmpq, &ms_info.mi_connected) {
    1666:	48 81 f9 00 00 00 00 	cmp    $0x0,%rcx
    166d:	48 8b 11             	mov    (%rcx),%rdx
    1670:	74 35                	je     16a7 <__scif_flush+0xd7>
			tmpep = list_entry(pos, struct endpt, list);
    1672:	4c 8d b9 c0 fd ff ff 	lea    -0x240(%rcx),%r15
			if (tmpep == ep) {
    1679:	4c 39 fb             	cmp    %r15,%rbx
    167c:	75 1d                	jne    169b <__scif_flush+0xcb>
    167e:	e9 f8 00 00 00       	jmpq   177b <__scif_flush+0x1ab>
    1683:	0f 1f 44 00 00       	nopl   0x0(%rax,%rax,1)
		WARN_ON(ep->files); // files should never be set while connected
		spin_unlock_irqrestore(&ep->lock, sflags);
		spin_lock_irqsave(&ms_info.mi_connlock, sflags);

		list_for_each_safe(pos, tmpq, &ms_info.mi_connected) {
			tmpep = list_entry(pos, struct endpt, list);
    1688:	4c 8d ba c0 fd ff ff 	lea    -0x240(%rdx),%r15
			if (tmpep == ep) {
    168f:	4c 39 fb             	cmp    %r15,%rbx
    1692:	0f 84 f0 00 00 00    	je     1788 <__scif_flush+0x1b8>
		init_waitqueue_head(&ep->disconwq);	// Wait for connection queue
		WARN_ON(ep->files); // files should never be set while connected
		spin_unlock_irqrestore(&ep->lock, sflags);
		spin_lock_irqsave(&ms_info.mi_connlock, sflags);

		list_for_each_safe(pos, tmpq, &ms_info.mi_connected) {
    1698:	48 89 c2             	mov    %rax,%rdx
    169b:	48 81 fa 00 00 00 00 	cmp    $0x0,%rdx
    16a2:	48 8b 02             	mov    (%rdx),%rax
    16a5:	75 e1                	jne    1688 <__scif_flush+0xb8>
		if (fep == NULL) {
			// The other side has completed the disconnect before
			// the end point can be removed from the list.  Therefore
			// the ep lock is not locked, traverse the disconnected list
			// to find the endpoint, release the conn lock.
			list_for_each_safe(pos, tmpq, &ms_info.mi_disconnected) {
    16a7:	48 8b 0d 00 00 00 00 	mov    0x0(%rip),%rcx        # 16ae <__scif_flush+0xde>
    16ae:	48 81 f9 00 00 00 00 	cmp    $0x0,%rcx
    16b5:	48 8b 01             	mov    (%rcx),%rax
    16b8:	74 34                	je     16ee <__scif_flush+0x11e>
				tmpep = list_entry(pos, struct endpt, list);
    16ba:	48 8d 91 c0 fd ff ff 	lea    -0x240(%rcx),%rdx
				if (tmpep == ep) {
    16c1:	48 39 d3             	cmp    %rdx,%rbx
    16c4:	75 1d                	jne    16e3 <__scif_flush+0x113>
    16c6:	e9 ad 03 00 00       	jmpq   1a78 <__scif_flush+0x4a8>
    16cb:	0f 1f 44 00 00       	nopl   0x0(%rax,%rax,1)
			// The other side has completed the disconnect before
			// the end point can be removed from the list.  Therefore
			// the ep lock is not locked, traverse the disconnected list
			// to find the endpoint, release the conn lock.
			list_for_each_safe(pos, tmpq, &ms_info.mi_disconnected) {
				tmpep = list_entry(pos, struct endpt, list);
    16d0:	48 8d 88 c0 fd ff ff 	lea    -0x240(%rax),%rcx
				if (tmpep == ep) {
    16d7:	48 39 cb             	cmp    %rcx,%rbx
    16da:	0f 84 a0 03 00 00    	je     1a80 <__scif_flush+0x4b0>
		if (fep == NULL) {
			// The other side has completed the disconnect before
			// the end point can be removed from the list.  Therefore
			// the ep lock is not locked, traverse the disconnected list
			// to find the endpoint, release the conn lock.
			list_for_each_safe(pos, tmpq, &ms_info.mi_disconnected) {
    16e0:	48 89 d0             	mov    %rdx,%rax
    16e3:	48 3d 00 00 00 00    	cmp    $0x0,%rax
    16e9:	48 8b 10             	mov    (%rax),%rdx
    16ec:	75 e2                	jne    16d0 <__scif_flush+0x100>
    16ee:	4c 89 f6             	mov    %r14,%rsi
    16f1:	48 c7 c7 00 00 00 00 	mov    $0x0,%rdi
    16f8:	e8 00 00 00 00       	callq  16fd <__scif_flush+0x12d>
    16fd:	eb 0c                	jmp    170b <__scif_flush+0x13b>
    16ff:	90                   	nop
    1700:	48 89 c6             	mov    %rax,%rsi
    1703:	4c 89 e7             	mov    %r12,%rdi
    1706:	e8 00 00 00 00       	callq  170b <__scif_flush+0x13b>
	}
	default:
		spin_unlock_irqrestore(&ep->lock, sflags);
		break;
	}
	micscif_dec_node_refcnt(ep->remote_dev, 1);
    170b:	48 8b 9b 48 01 00 00 	mov    0x148(%rbx),%rbx
 */
static __always_inline void
micscif_dec_node_refcnt(struct micscif_dev *dev, long cnt)
{
#ifdef SCIF_ENABLE_PM
	if (dev) {
    1712:	48 85 db             	test   %rbx,%rbx
    1715:	74 21                	je     1738 <__scif_flush+0x168>
		if (unlikely((atomic_long_sub_return(cnt, 
    1717:	4c 8d a3 88 01 00 00 	lea    0x188(%rbx),%r12
 *
 * Atomically adds @i to @v and returns @i + @v
 */
static inline long atomic64_add_return(long i, atomic64_t *v)
{
	return i + xadd(&v->counter, i);
    171e:	48 c7 c0 ff ff ff ff 	mov    $0xffffffffffffffff,%rax
    1725:	f0 48 0f c1 83 88 01 	lock xadd %rax,0x188(%rbx)
    172c:	00 00 
    172e:	48 83 e8 01          	sub    $0x1,%rax
    1732:	0f 88 a8 02 00 00    	js     19e0 <__scif_flush+0x410>
	return 0;
}
    1738:	48 83 c4 78          	add    $0x78,%rsp
    173c:	31 c0                	xor    %eax,%eax
    173e:	5b                   	pop    %rbx
    173f:	41 5c                	pop    %r12
    1741:	41 5d                	pop    %r13
    1743:	41 5e                	pop    %r14
    1745:	41 5f                	pop    %r15
    1747:	5d                   	pop    %rbp
    1748:	c3                   	retq   
    1749:	0f 1f 80 00 00 00 00 	nopl   0x0(%rax)
	case SCIFEP_LISTENING:
	{
		ep->state = SCIFEP_CLLISTEN;

		// If an accept is waiting wake it up
		wake_up_interruptible(&ep->conwq);
    1750:	48 8d bb 88 01 00 00 	lea    0x188(%rbx),%rdi
		wake_up_interruptible(&ep->recvwq);
		break;
	}
	case SCIFEP_LISTENING:
	{
		ep->state = SCIFEP_CLLISTEN;
    1757:	c7 03 08 00 00 00    	movl   $0x8,(%rbx)

		// If an accept is waiting wake it up
		wake_up_interruptible(&ep->conwq);
    175d:	31 c9                	xor    %ecx,%ecx
    175f:	ba 01 00 00 00       	mov    $0x1,%edx
    1764:	be 01 00 00 00       	mov    $0x1,%esi
    1769:	e8 00 00 00 00       	callq  176e <__scif_flush+0x19e>
    176e:	4c 89 f6             	mov    %r14,%rsi
    1771:	4c 89 e7             	mov    %r12,%rdi
    1774:	e8 00 00 00 00       	callq  1779 <__scif_flush+0x1a9>
    1779:	eb 90                	jmp    170b <__scif_flush+0x13b>
		spin_unlock_irqrestore(&ep->lock, sflags);
		spin_lock_irqsave(&ms_info.mi_connlock, sflags);

		list_for_each_safe(pos, tmpq, &ms_info.mi_connected) {
			tmpep = list_entry(pos, struct endpt, list);
			if (tmpep == ep) {
    177b:	48 89 d0             	mov    %rdx,%rax
    177e:	48 89 ca             	mov    %rcx,%rdx
    1781:	0f 1f 80 00 00 00 00 	nopl   0x0(%rax)
	__list_del(entry->prev, entry->next);
}

static inline void list_del(struct list_head *entry)
{
	__list_del(entry->prev, entry->next);
    1788:	48 8b 4a 08          	mov    0x8(%rdx),%rcx
 * This is only for internal list manipulation where we know
 * the prev/next entries already!
 */
static inline void __list_del(struct list_head * prev, struct list_head * next)
{
	next->prev = prev;
    178c:	48 89 48 08          	mov    %rcx,0x8(%rax)
	prev->next = next;
    1790:	48 89 01             	mov    %rax,(%rcx)
}

static inline void list_del(struct list_head *entry)
{
	__list_del(entry->prev, entry->next);
	entry->next = LIST_POISON1;
    1793:	48 b8 00 01 10 00 00 	movabs $0xdead000000100100,%rax
    179a:	00 ad de 
    179d:	48 89 02             	mov    %rax,(%rdx)
	entry->prev = LIST_POISON2;
    17a0:	48 b8 00 02 20 00 00 	movabs $0xdead000000200200,%rax
    17a7:	00 ad de 
    17aa:	48 89 42 08          	mov    %rax,0x8(%rdx)
				list_del(pos);
				put_conn_count(ep->remote_dev);
    17ae:	48 8b 93 48 01 00 00 	mov    0x148(%rbx),%rdx
    17b5:	83 aa dc 01 00 00 01 	subl   $0x1,0x1dc(%rdx)
    17bc:	0f 88 ff 02 00 00    	js     1ac1 <__scif_flush+0x4f1>
	raw_spin_lock_init(&(_lock)->rlock);		\
} while (0)

static inline void spin_lock(spinlock_t *lock)
{
	raw_spin_lock(&lock->rlock);
    17c2:	4c 89 e7             	mov    %r12,%rdi
    17c5:	e8 00 00 00 00       	callq  17ca <__scif_flush+0x1fa>
				spin_lock(&ep->lock);
				break;
			}
		}

		if (fep == NULL) {
    17ca:	4d 85 ff             	test   %r15,%r15
    17cd:	0f 84 d4 fe ff ff    	je     16a7 <__scif_flush+0xd7>
    17d3:	fe 05 00 00 00 00    	incb   0x0(%rip)        # 17d9 <__scif_flush+0x209>
		}

		spin_unlock(&ms_info.mi_connlock);

		msg.uop = SCIF_DISCNCT;
		msg.src = ep->port;
    17d9:	8b 43 06             	mov    0x6(%rbx),%eax
		msg.dst = ep->peer;
		msg.payload[0] = (uint64_t)ep;
		msg.payload[1] = ep->remote_ep;

		err = micscif_nodeqp_send(ep->remote_dev, &msg, ep);
    17dc:	48 8d 75 a4          	lea    -0x5c(%rbp),%rsi
    17e0:	48 89 da             	mov    %rbx,%rdx
		spin_unlock(&ms_info.mi_connlock);

		msg.uop = SCIF_DISCNCT;
		msg.src = ep->port;
		msg.dst = ep->peer;
		msg.payload[0] = (uint64_t)ep;
    17e3:	48 89 5d b0          	mov    %rbx,-0x50(%rbp)
		msg.payload[1] = ep->remote_ep;

		err = micscif_nodeqp_send(ep->remote_dev, &msg, ep);
    17e7:	48 8b bb 48 01 00 00 	mov    0x148(%rbx),%rdi
			break;
		}

		spin_unlock(&ms_info.mi_connlock);

		msg.uop = SCIF_DISCNCT;
    17ee:	c7 45 ac 0c 00 00 00 	movl   $0xc,-0x54(%rbp)
		msg.src = ep->port;
    17f5:	89 45 a4             	mov    %eax,-0x5c(%rbp)
		msg.dst = ep->peer;
    17f8:	8b 43 0a             	mov    0xa(%rbx),%eax
    17fb:	89 45 a8             	mov    %eax,-0x58(%rbp)
		msg.payload[0] = (uint64_t)ep;
		msg.payload[1] = ep->remote_ep;
    17fe:	48 8b 83 50 01 00 00 	mov    0x150(%rbx),%rax
    1805:	48 89 45 b8          	mov    %rax,-0x48(%rbp)

		err = micscif_nodeqp_send(ep->remote_dev, &msg, ep);
    1809:	e8 00 00 00 00       	callq  180e <__scif_flush+0x23e>
	raw_spin_unlock_irq(&lock->rlock);
}

static inline void spin_unlock_irqrestore(spinlock_t *lock, unsigned long flags)
{
	raw_spin_unlock_irqrestore(&lock->rlock, flags);
    180e:	4c 89 f6             	mov    %r14,%rsi
    1811:	4c 89 e7             	mov    %r12,%rdi
    1814:	41 89 c7             	mov    %eax,%r15d
    1817:	e8 00 00 00 00       	callq  181c <__scif_flush+0x24c>

		spin_unlock_irqrestore(&ep->lock, sflags);
		if (!err)
    181c:	45 85 ff             	test   %r15d,%r15d
    181f:	0f 85 7d 00 00 00    	jne    18a2 <__scif_flush+0x2d2>
			/* Now wait for the remote node to respond */
			wait_event_timeout(ep->disconwq, 
    1825:	8b 03                	mov    (%rbx),%eax
    1827:	44 8b 35 00 00 00 00 	mov    0x0(%rip),%r14d        # 182e <__scif_flush+0x25e>
    182e:	83 f8 09             	cmp    $0x9,%eax
    1831:	74 6f                	je     18a2 <__scif_flush+0x2d2>
    1833:	45 6b f6 64          	imul   $0x64,%r14d,%r14d
    1837:	4c 8d bd 78 ff ff ff 	lea    -0x88(%rbp),%r15
    183e:	48 c7 85 78 ff ff ff 	movq   $0x0,-0x88(%rbp)
    1845:	00 00 00 00 
    1849:	65 48 8b 04 25 00 00 	mov    %gs:0x0,%rax
    1850:	00 00 
    1852:	48 89 45 80          	mov    %rax,-0x80(%rbp)
    1856:	49 8d 47 18          	lea    0x18(%r15),%rax
    185a:	4d 63 f6             	movslq %r14d,%r14
    185d:	48 c7 45 88 00 00 00 	movq   $0x0,-0x78(%rbp)
    1864:	00 
    1865:	48 89 45 90          	mov    %rax,-0x70(%rbp)
    1869:	48 89 45 98          	mov    %rax,-0x68(%rbp)
    186d:	eb 11                	jmp    1880 <__scif_flush+0x2b0>
    186f:	90                   	nop
    1870:	4c 89 f7             	mov    %r14,%rdi
    1873:	e8 00 00 00 00       	callq  1878 <__scif_flush+0x2a8>
    1878:	48 85 c0             	test   %rax,%rax
    187b:	49 89 c6             	mov    %rax,%r14
    187e:	74 17                	je     1897 <__scif_flush+0x2c7>
    1880:	ba 02 00 00 00       	mov    $0x2,%edx
    1885:	4c 89 fe             	mov    %r15,%rsi
    1888:	4c 89 ef             	mov    %r13,%rdi
    188b:	e8 00 00 00 00       	callq  1890 <__scif_flush+0x2c0>
    1890:	8b 03                	mov    (%rbx),%eax
    1892:	83 f8 09             	cmp    $0x9,%eax
    1895:	75 d9                	jne    1870 <__scif_flush+0x2a0>
    1897:	4c 89 fe             	mov    %r15,%rsi
    189a:	4c 89 ef             	mov    %r13,%rdi
    189d:	e8 00 00 00 00       	callq  18a2 <__scif_flush+0x2d2>
				(ep->state == SCIFEP_DISCONNECTED), NODE_ALIVE_TIMEOUT);
		spin_lock_irqsave(&ms_info.mi_connlock, sflags);
    18a2:	48 c7 c7 00 00 00 00 	mov    $0x0,%rdi
    18a9:	e8 00 00 00 00       	callq  18ae <__scif_flush+0x2de>
	raw_spin_lock_init(&(_lock)->rlock);		\
} while (0)

static inline void spin_lock(spinlock_t *lock)
{
	raw_spin_lock(&lock->rlock);
    18ae:	4c 89 e7             	mov    %r12,%rdi
    18b1:	49 89 c5             	mov    %rax,%r13
    18b4:	e8 00 00 00 00       	callq  18b9 <__scif_flush+0x2e9>
 * Insert a new entry before the specified head.
 * This is useful for implementing queues.
 */
static inline void list_add_tail(struct list_head *new, struct list_head *head)
{
	__list_add(new, head->prev, head);
    18b9:	48 8b 15 00 00 00 00 	mov    0x0(%rip),%rdx        # 18c0 <__scif_flush+0x2f0>
		spin_lock(&ep->lock);
		list_add_tail(&ep->list, &ms_info.mi_disconnected);
    18c0:	48 8d 8b 40 02 00 00 	lea    0x240(%rbx),%rcx
static inline void __list_add(struct list_head *new,
			      struct list_head *prev,
			      struct list_head *next)
{
	next->prev = new;
	new->next = next;
    18c7:	48 c7 83 40 02 00 00 	movq   $0x0,0x240(%rbx)
    18ce:	00 00 00 00 
#ifndef CONFIG_DEBUG_LIST
static inline void __list_add(struct list_head *new,
			      struct list_head *prev,
			      struct list_head *next)
{
	next->prev = new;
    18d2:	48 89 0d 00 00 00 00 	mov    %rcx,0x0(%rip)        # 18d9 <__scif_flush+0x309>
	new->next = next;
	new->prev = prev;
    18d9:	48 89 93 48 02 00 00 	mov    %rdx,0x248(%rbx)
	prev->next = new;
    18e0:	48 89 0a             	mov    %rcx,(%rdx)
		ep->state = SCIFEP_DISCONNECTED;
    18e3:	c7 03 09 00 00 00    	movl   $0x9,(%rbx)
    18e9:	fe 43 04             	incb   0x4(%rbx)
	raw_spin_unlock_irq(&lock->rlock);
}

static inline void spin_unlock_irqrestore(spinlock_t *lock, unsigned long flags)
{
	raw_spin_unlock_irqrestore(&lock->rlock, flags);
    18ec:	48 c7 c7 00 00 00 00 	mov    $0x0,%rdi
    18f3:	4c 89 ee             	mov    %r13,%rsi
    18f6:	e8 00 00 00 00       	callq  18fb <__scif_flush+0x32b>
		spin_unlock(&ep->lock);
		spin_unlock_irqrestore(&ms_info.mi_connlock, sflags);
		// Wake up threads blocked in send and recv
		wake_up_interruptible(&ep->sendwq);
    18fb:	48 8d bb d0 01 00 00 	lea    0x1d0(%rbx),%rdi
    1902:	31 c9                	xor    %ecx,%ecx
    1904:	ba 01 00 00 00       	mov    $0x1,%edx
    1909:	be 01 00 00 00       	mov    $0x1,%esi
    190e:	e8 00 00 00 00       	callq  1913 <__scif_flush+0x343>
		wake_up_interruptible(&ep->recvwq);
    1913:	48 8d bb e8 01 00 00 	lea    0x1e8(%rbx),%rdi
    191a:	31 c9                	xor    %ecx,%ecx
    191c:	ba 01 00 00 00       	mov    $0x1,%edx
    1921:	be 01 00 00 00       	mov    $0x1,%esi
    1926:	e8 00 00 00 00       	callq  192b <__scif_flush+0x35b>
		break;
    192b:	e9 db fd ff ff       	jmpq   170b <__scif_flush+0x13b>
 * Atomically reads the value of @v.
 * Doesn't imply a read memory barrier.
 */
static inline long atomic64_read(const atomic64_t *v)
{
	return (*(volatile long *)&(v)->counter);
    1930:	49 8b 8c 24 88 01 00 	mov    0x188(%r12),%rcx
    1937:	00 
 */
static __always_inline void
micscif_inc_node_refcnt(struct micscif_dev *dev, long cnt)
{
#ifdef SCIF_ENABLE_PM
	if (unlikely(dev && !atomic_long_add_unless(&dev->scif_ref_cnt, 
    1938:	49 8d bc 24 88 01 00 	lea    0x188(%r12),%rdi
    193f:	00 
static inline int atomic64_add_unless(atomic64_t *v, long a, long u)
{
	long c, old;
	c = atomic64_read(v);
	for (;;) {
		if (unlikely(c == (u)))
    1940:	48 be 00 00 00 00 00 	movabs $0x8000000000000000,%rsi
    1947:	00 00 80 
    194a:	48 39 f1             	cmp    %rsi,%rcx
    194d:	74 3f                	je     198e <__scif_flush+0x3be>
			break;
		old = atomic64_cmpxchg((v), c, c + (a));
    194f:	48 8d 51 01          	lea    0x1(%rcx),%rdx
#define atomic64_inc_return(v)  (atomic64_add_return(1, (v)))
#define atomic64_dec_return(v)  (atomic64_sub_return(1, (v)))

static inline long atomic64_cmpxchg(atomic64_t *v, long old, long new)
{
	return cmpxchg(&v->counter, old, new);
    1953:	48 89 c8             	mov    %rcx,%rax
    1956:	f0 49 0f b1 94 24 88 	lock cmpxchg %rdx,0x188(%r12)
    195d:	01 00 00 
	c = atomic64_read(v);
	for (;;) {
		if (unlikely(c == (u)))
			break;
		old = atomic64_cmpxchg((v), c, c + (a));
		if (likely(old == c))
    1960:	48 39 c8             	cmp    %rcx,%rax
#define atomic64_inc_return(v)  (atomic64_add_return(1, (v)))
#define atomic64_dec_return(v)  (atomic64_sub_return(1, (v)))

static inline long atomic64_cmpxchg(atomic64_t *v, long old, long new)
{
	return cmpxchg(&v->counter, old, new);
    1963:	48 89 c2             	mov    %rax,%rdx
	c = atomic64_read(v);
	for (;;) {
		if (unlikely(c == (u)))
			break;
		old = atomic64_cmpxchg((v), c, c + (a));
		if (likely(old == c))
    1966:	0f 84 92 fc ff ff    	je     15fe <__scif_flush+0x2e>
static inline int atomic64_add_unless(atomic64_t *v, long a, long u)
{
	long c, old;
	c = atomic64_read(v);
	for (;;) {
		if (unlikely(c == (u)))
    196c:	48 39 f2             	cmp    %rsi,%rdx
    196f:	74 1d                	je     198e <__scif_flush+0x3be>
			break;
		old = atomic64_cmpxchg((v), c, c + (a));
    1971:	48 8d 4a 01          	lea    0x1(%rdx),%rcx
#define atomic64_inc_return(v)  (atomic64_add_return(1, (v)))
#define atomic64_dec_return(v)  (atomic64_sub_return(1, (v)))

static inline long atomic64_cmpxchg(atomic64_t *v, long old, long new)
{
	return cmpxchg(&v->counter, old, new);
    1975:	48 89 d0             	mov    %rdx,%rax
    1978:	f0 48 0f b1 0f       	lock cmpxchg %rcx,(%rdi)
	c = atomic64_read(v);
	for (;;) {
		if (unlikely(c == (u)))
			break;
		old = atomic64_cmpxchg((v), c, c + (a));
		if (likely(old == c))
    197d:	48 39 c2             	cmp    %rax,%rdx
    1980:	0f 84 78 fc ff ff    	je     15fe <__scif_flush+0x2e>
    1986:	48 89 c2             	mov    %rax,%rdx
static inline int atomic64_add_unless(atomic64_t *v, long a, long u)
{
	long c, old;
	c = atomic64_read(v);
	for (;;) {
		if (unlikely(c == (u)))
    1989:	48 39 f2             	cmp    %rsi,%rdx
    198c:	75 e3                	jne    1971 <__scif_flush+0x3a1>
		cnt, SCIF_NODE_IDLE))) {
		/*
		 * This code path would not be entered unless the remote
		 * SCIF device has actually been put to sleep by the host.
		 */
		mutex_lock(&dev->sd_lock);
    198e:	4d 8d ac 24 68 01 00 	lea    0x168(%r12),%r13
    1995:	00 
    1996:	4c 89 ef             	mov    %r13,%rdi
    1999:	e8 00 00 00 00       	callq  199e <__scif_flush+0x3ce>
		if (SCIFDEV_STOPPED == dev->sd_state ||
    199e:	41 8b 44 24 04       	mov    0x4(%r12),%eax
			SCIFDEV_STOPPING == dev->sd_state ||
    19a3:	8d 50 fc             	lea    -0x4(%rax),%edx
		/*
		 * This code path would not be entered unless the remote
		 * SCIF device has actually been put to sleep by the host.
		 */
		mutex_lock(&dev->sd_lock);
		if (SCIFDEV_STOPPED == dev->sd_state ||
    19a6:	83 fa 01             	cmp    $0x1,%edx
    19a9:	76 20                	jbe    19cb <__scif_flush+0x3fb>
    19ab:	83 f8 01             	cmp    $0x1,%eax
    19ae:	74 1b                	je     19cb <__scif_flush+0x3fb>
}

static __always_inline int constant_test_bit(unsigned int nr, const volatile unsigned long *addr)
{
	return ((1UL << (nr % BITS_PER_LONG)) &
		(addr[nr / BITS_PER_LONG])) != 0;
    19b0:	49 8b 84 24 88 01 00 	mov    0x188(%r12),%rax
    19b7:	00 
			SCIFDEV_STOPPING == dev->sd_state ||
			SCIFDEV_INIT == dev->sd_state)
			goto bail_out;
		if (test_bit(SCIF_NODE_MAGIC_BIT, 
    19b8:	48 85 c0             	test   %rax,%rax
    19bb:	0f 88 02 01 00 00    	js     1ac3 <__scif_flush+0x4f3>
 *
 * Atomically adds @i to @v.
 */
static inline void atomic64_add(long i, atomic64_t *v)
{
	asm volatile(LOCK_PREFIX "addq %1,%0"
    19c1:	f0 49 83 84 24 88 01 	lock addq $0x1,0x188(%r12)
    19c8:	00 00 01 
			}
		}
		/* The ref count was not added if the node was idle. */
		atomic_long_add(cnt, &dev->scif_ref_cnt);
bail_out:
		mutex_unlock(&dev->sd_lock);
    19cb:	4c 89 ef             	mov    %r13,%rdi
    19ce:	e8 00 00 00 00       	callq  19d3 <__scif_flush+0x403>
    19d3:	e9 26 fc ff ff       	jmpq   15fe <__scif_flush+0x2e>
    19d8:	0f 1f 84 00 00 00 00 	nopl   0x0(%rax,%rax,1)
    19df:	00 
{
#ifdef SCIF_ENABLE_PM
	if (dev) {
		if (unlikely((atomic_long_sub_return(cnt, 
			&dev->scif_ref_cnt)) < 0)) {
			printk(KERN_ERR "%s %d dec dev %p node %d ref %ld "
    19e0:	48 8b 45 08          	mov    0x8(%rbp),%rax
    19e4:	48 89 d9             	mov    %rbx,%rcx
    19e7:	ba a7 00 00 00       	mov    $0xa7,%edx
    19ec:	48 c7 c6 00 00 00 00 	mov    $0x0,%rsi
 * Atomically reads the value of @v.
 * Doesn't imply a read memory barrier.
 */
static inline long atomic64_read(const atomic64_t *v)
{
	return (*(volatile long *)&(v)->counter);
    19f3:	4c 8b 8b 88 01 00 00 	mov    0x188(%rbx),%r9
    19fa:	48 c7 c7 00 00 00 00 	mov    $0x0,%rdi
    1a01:	44 0f b7 03          	movzwl (%rbx),%r8d
    1a05:	48 89 04 24          	mov    %rax,(%rsp)
    1a09:	31 c0                	xor    %eax,%eax
    1a0b:	e8 00 00 00 00       	callq  1a10 <__scif_flush+0x440>
    1a10:	48 8b 8b 88 01 00 00 	mov    0x188(%rbx),%rcx
static inline int atomic64_add_unless(atomic64_t *v, long a, long u)
{
	long c, old;
	c = atomic64_read(v);
	for (;;) {
		if (unlikely(c == (u)))
    1a17:	48 be 00 00 00 00 00 	movabs $0x8000000000000000,%rsi
    1a1e:	00 00 80 
    1a21:	48 39 f1             	cmp    %rsi,%rcx
    1a24:	0f 84 0e fd ff ff    	je     1738 <__scif_flush+0x168>
			break;
		old = atomic64_cmpxchg((v), c, c + (a));
    1a2a:	48 8d 51 01          	lea    0x1(%rcx),%rdx
#define atomic64_inc_return(v)  (atomic64_add_return(1, (v)))
#define atomic64_dec_return(v)  (atomic64_sub_return(1, (v)))

static inline long atomic64_cmpxchg(atomic64_t *v, long old, long new)
{
	return cmpxchg(&v->counter, old, new);
    1a2e:	48 89 c8             	mov    %rcx,%rax
    1a31:	f0 48 0f b1 93 88 01 	lock cmpxchg %rdx,0x188(%rbx)
    1a38:	00 00 
	c = atomic64_read(v);
	for (;;) {
		if (unlikely(c == (u)))
			break;
		old = atomic64_cmpxchg((v), c, c + (a));
		if (likely(old == c))
    1a3a:	48 39 c8             	cmp    %rcx,%rax
#define atomic64_inc_return(v)  (atomic64_add_return(1, (v)))
#define atomic64_dec_return(v)  (atomic64_sub_return(1, (v)))

static inline long atomic64_cmpxchg(atomic64_t *v, long old, long new)
{
	return cmpxchg(&v->counter, old, new);
    1a3d:	48 89 c2             	mov    %rax,%rdx
	c = atomic64_read(v);
	for (;;) {
		if (unlikely(c == (u)))
			break;
		old = atomic64_cmpxchg((v), c, c + (a));
		if (likely(old == c))
    1a40:	0f 84 f2 fc ff ff    	je     1738 <__scif_flush+0x168>
static inline int atomic64_add_unless(atomic64_t *v, long a, long u)
{
	long c, old;
	c = atomic64_read(v);
	for (;;) {
		if (unlikely(c == (u)))
    1a46:	48 39 f2             	cmp    %rsi,%rdx
    1a49:	0f 84 e9 fc ff ff    	je     1738 <__scif_flush+0x168>
			break;
		old = atomic64_cmpxchg((v), c, c + (a));
    1a4f:	48 8d 4a 01          	lea    0x1(%rdx),%rcx
#define atomic64_inc_return(v)  (atomic64_add_return(1, (v)))
#define atomic64_dec_return(v)  (atomic64_sub_return(1, (v)))

static inline long atomic64_cmpxchg(atomic64_t *v, long old, long new)
{
	return cmpxchg(&v->counter, old, new);
    1a53:	48 89 d0             	mov    %rdx,%rax
    1a56:	f0 49 0f b1 0c 24    	lock cmpxchg %rcx,(%r12)
	c = atomic64_read(v);
	for (;;) {
		if (unlikely(c == (u)))
			break;
		old = atomic64_cmpxchg((v), c, c + (a));
		if (likely(old == c))
    1a5c:	48 39 c2             	cmp    %rax,%rdx
    1a5f:	0f 84 d3 fc ff ff    	je     1738 <__scif_flush+0x168>
    1a65:	48 89 c2             	mov    %rax,%rdx
static inline int atomic64_add_unless(atomic64_t *v, long a, long u)
{
	long c, old;
	c = atomic64_read(v);
	for (;;) {
		if (unlikely(c == (u)))
    1a68:	48 39 f2             	cmp    %rsi,%rdx
    1a6b:	75 e2                	jne    1a4f <__scif_flush+0x47f>
    1a6d:	e9 c6 fc ff ff       	jmpq   1738 <__scif_flush+0x168>
    1a72:	66 0f 1f 44 00 00    	nopw   0x0(%rax,%rax,1)
			// the end point can be removed from the list.  Therefore
			// the ep lock is not locked, traverse the disconnected list
			// to find the endpoint, release the conn lock.
			list_for_each_safe(pos, tmpq, &ms_info.mi_disconnected) {
				tmpep = list_entry(pos, struct endpt, list);
				if (tmpep == ep) {
    1a78:	48 89 c2             	mov    %rax,%rdx
    1a7b:	48 89 c8             	mov    %rcx,%rax
    1a7e:	66 90                	xchg   %ax,%ax
}

static inline void list_del(struct list_head *entry)
{
	__list_del(entry->prev, entry->next);
	entry->next = LIST_POISON1;
    1a80:	48 be 00 01 10 00 00 	movabs $0xdead000000100100,%rsi
    1a87:	00 ad de 
	__list_del(entry->prev, entry->next);
}

static inline void list_del(struct list_head *entry)
{
	__list_del(entry->prev, entry->next);
    1a8a:	48 8b 48 08          	mov    0x8(%rax),%rcx
 * This is only for internal list manipulation where we know
 * the prev/next entries already!
 */
static inline void __list_del(struct list_head * prev, struct list_head * next)
{
	next->prev = prev;
    1a8e:	48 89 4a 08          	mov    %rcx,0x8(%rdx)
	prev->next = next;
    1a92:	48 89 11             	mov    %rdx,(%rcx)
}

static inline void list_del(struct list_head *entry)
{
	__list_del(entry->prev, entry->next);
	entry->next = LIST_POISON1;
    1a95:	48 89 30             	mov    %rsi,(%rax)
	entry->prev = LIST_POISON2;
    1a98:	48 be 00 02 20 00 00 	movabs $0xdead000000200200,%rsi
    1a9f:	00 ad de 
    1aa2:	48 89 70 08          	mov    %rsi,0x8(%rax)
    1aa6:	e9 43 fc ff ff       	jmpq   16ee <__scif_flush+0x11e>
	{
		struct nodemsg msg;
		struct endpt *fep = NULL;

		init_waitqueue_head(&ep->disconwq);	// Wait for connection queue
		WARN_ON(ep->files); // files should never be set while connected
    1aab:	be 8f 01 00 00       	mov    $0x18f,%esi
    1ab0:	48 c7 c7 00 00 00 00 	mov    $0x0,%rdi
    1ab7:	e8 00 00 00 00       	callq  1abc <__scif_flush+0x4ec>
    1abc:	e9 84 fb ff ff       	jmpq   1645 <__scif_flush+0x75>
    1ac1:	0f 0b                	ud2    
			/* Notify host that the remote node must be woken */
			struct nodemsg notif_msg;

			dev->sd_wait_status = OP_IN_PROGRESS;
			notif_msg.uop = SCIF_NODE_WAKE_UP;
			notif_msg.src.node = ms_info.mi_nodeid;
    1ac3:	8b 05 00 00 00 00    	mov    0x0(%rip),%eax        # 1ac9 <__scif_flush+0x4f9>
			notif_msg.dst.node = SCIF_HOST_NODE;
			notif_msg.payload[0] = dev->sd_node;
			/* No error handling for Host SCIF device */
			micscif_nodeqp_send(&scif_dev[SCIF_HOST_NODE],
    1ac9:	31 d2                	xor    %edx,%edx
		if (test_bit(SCIF_NODE_MAGIC_BIT, 
			&dev->scif_ref_cnt.counter)) {
			/* Notify host that the remote node must be woken */
			struct nodemsg notif_msg;

			dev->sd_wait_status = OP_IN_PROGRESS;
    1acb:	49 c7 84 24 b0 01 00 	movq   $0x2,0x1b0(%r12)
    1ad2:	00 02 00 00 00 
			notif_msg.uop = SCIF_NODE_WAKE_UP;
			notif_msg.src.node = ms_info.mi_nodeid;
			notif_msg.dst.node = SCIF_HOST_NODE;
			notif_msg.payload[0] = dev->sd_node;
			/* No error handling for Host SCIF device */
			micscif_nodeqp_send(&scif_dev[SCIF_HOST_NODE],
    1ad7:	48 c7 c7 00 00 00 00 	mov    $0x0,%rdi
			&dev->scif_ref_cnt.counter)) {
			/* Notify host that the remote node must be woken */
			struct nodemsg notif_msg;

			dev->sd_wait_status = OP_IN_PROGRESS;
			notif_msg.uop = SCIF_NODE_WAKE_UP;
    1ade:	c7 45 ac 2e 00 00 00 	movl   $0x2e,-0x54(%rbp)
			notif_msg.src.node = ms_info.mi_nodeid;
			notif_msg.dst.node = SCIF_HOST_NODE;
			notif_msg.payload[0] = dev->sd_node;
			/* No error handling for Host SCIF device */
			micscif_nodeqp_send(&scif_dev[SCIF_HOST_NODE],
    1ae5:	48 8d 75 a4          	lea    -0x5c(%rbp),%rsi
			/* Notify host that the remote node must be woken */
			struct nodemsg notif_msg;

			dev->sd_wait_status = OP_IN_PROGRESS;
			notif_msg.uop = SCIF_NODE_WAKE_UP;
			notif_msg.src.node = ms_info.mi_nodeid;
    1ae9:	66 89 45 a4          	mov    %ax,-0x5c(%rbp)
			notif_msg.dst.node = SCIF_HOST_NODE;
    1aed:	31 c0                	xor    %eax,%eax
    1aef:	66 89 45 a8          	mov    %ax,-0x58(%rbp)
			notif_msg.payload[0] = dev->sd_node;
    1af3:	41 0f b7 04 24       	movzwl (%r12),%eax
    1af8:	48 89 45 b0          	mov    %rax,-0x50(%rbp)
			/* No error handling for Host SCIF device */
			micscif_nodeqp_send(&scif_dev[SCIF_HOST_NODE],
    1afc:	e8 00 00 00 00       	callq  1b01 <__scif_flush+0x531>
			/*
			 * A timeout is not required since only the cards can
			 * initiate this message. The Host is expected to be alive.
			 * If the host has crashed then so will the cards.
			 */
			wait_event(dev->sd_wq, 
    1b01:	49 8b 84 24 b0 01 00 	mov    0x1b0(%r12),%rax
    1b08:	00 
    1b09:	48 83 f8 02          	cmp    $0x2,%rax
    1b0d:	74 22                	je     1b31 <__scif_flush+0x561>
				dev->sd_wait_status != OP_IN_PROGRESS);
			/*
			 * Aieee! The host could not wake up the remote node.
			 * Bail out for now.
			 */
			if (dev->sd_wait_status == OP_COMPLETED) {
    1b0f:	48 83 f8 03          	cmp    $0x3,%rax
    1b13:	0f 85 a8 fe ff ff    	jne    19c1 <__scif_flush+0x3f1>
				dev->sd_state = SCIFDEV_RUNNING;
    1b19:	41 c7 44 24 04 02 00 	movl   $0x2,0x4(%r12)
    1b20:	00 00 
 */
static __always_inline void
clear_bit(int nr, volatile unsigned long *addr)
{
	if (IS_IMMEDIATE(nr)) {
		asm volatile(LOCK_PREFIX "andb %1,%0"
    1b22:	f0 41 80 a4 24 8f 01 	lock andb $0x7f,0x18f(%r12)
    1b29:	00 00 7f 
    1b2c:	e9 90 fe ff ff       	jmpq   19c1 <__scif_flush+0x3f1>
			/*
			 * A timeout is not required since only the cards can
			 * initiate this message. The Host is expected to be alive.
			 * If the host has crashed then so will the cards.
			 */
			wait_event(dev->sd_wq, 
    1b31:	48 8d bd 78 ff ff ff 	lea    -0x88(%rbp),%rdi
    1b38:	30 c0                	xor    %al,%al
    1b3a:	b9 0a 00 00 00       	mov    $0xa,%ecx
    1b3f:	f3 ab                	rep stos %eax,%es:(%rdi)
    1b41:	4c 8d bd 78 ff ff ff 	lea    -0x88(%rbp),%r15
    1b48:	48 c7 45 88 00 00 00 	movq   $0x0,-0x78(%rbp)
    1b4f:	00 
    1b50:	65 48 8b 04 25 00 00 	mov    %gs:0x0,%rax
    1b57:	00 00 
    1b59:	48 89 45 80          	mov    %rax,-0x80(%rbp)
    1b5d:	49 8d 47 18          	lea    0x18(%r15),%rax
    1b61:	48 89 45 90          	mov    %rax,-0x70(%rbp)
    1b65:	4d 8d b4 24 98 01 00 	lea    0x198(%r12),%r14
    1b6c:	00 
    1b6d:	48 89 45 98          	mov    %rax,-0x68(%rbp)
    1b71:	eb 0a                	jmp    1b7d <__scif_flush+0x5ad>
    1b73:	0f 1f 44 00 00       	nopl   0x0(%rax,%rax,1)
    1b78:	e8 00 00 00 00       	callq  1b7d <__scif_flush+0x5ad>
    1b7d:	ba 02 00 00 00       	mov    $0x2,%edx
    1b82:	4c 89 fe             	mov    %r15,%rsi
    1b85:	4c 89 f7             	mov    %r14,%rdi
    1b88:	e8 00 00 00 00       	callq  1b8d <__scif_flush+0x5bd>
    1b8d:	49 83 bc 24 b0 01 00 	cmpq   $0x2,0x1b0(%r12)
    1b94:	00 02 
    1b96:	74 e0                	je     1b78 <__scif_flush+0x5a8>
    1b98:	4c 89 fe             	mov    %r15,%rsi
    1b9b:	4c 89 f7             	mov    %r14,%rdi
    1b9e:	e8 00 00 00 00       	callq  1ba3 <__scif_flush+0x5d3>
    1ba3:	49 8b 84 24 b0 01 00 	mov    0x1b0(%r12),%rax
    1baa:	00 
    1bab:	e9 5f ff ff ff       	jmpq   1b0f <__scif_flush+0x53f>

0000000000001bb0 <scif_close>:
	__scif_close((scif_epd_t)epd);
}

int
scif_close(scif_epd_t epd)
{
    1bb0:	55                   	push   %rbp
    1bb1:	48 89 e5             	mov    %rsp,%rbp
    1bb4:	53                   	push   %rbx
    1bb5:	48 83 ec 08          	sub    $0x8,%rsp
    1bb9:	e8 00 00 00 00       	callq  1bbe <scif_close+0xe>
    1bbe:	48 89 fb             	mov    %rdi,%rbx
	__scif_flush(epd);
    1bc1:	e8 00 00 00 00       	callq  1bc6 <scif_close+0x16>
 * to synchronize calling this API with get_kref_count.
 */
static __always_inline void
put_kref_count(scif_epd_t epd)
{
	kref_put(&(epd->ref_count), scif_ref_rel);
    1bc6:	48 8d bb 70 01 00 00 	lea    0x170(%rbx),%rdi
    1bcd:	48 c7 c6 00 00 00 00 	mov    $0x0,%rsi
    1bd4:	e8 00 00 00 00       	callq  1bd9 <scif_close+0x29>
	put_kref_count(epd);
	return 0;
}
    1bd9:	48 83 c4 08          	add    $0x8,%rsp
    1bdd:	31 c0                	xor    %eax,%eax
    1bdf:	5b                   	pop    %rbx
    1be0:	5d                   	pop    %rbp
    1be1:	c3                   	retq   
    1be2:	66 66 66 66 66 2e 0f 	data32 data32 data32 data32 nopw %cs:0x0(%rax,%rax,1)
    1be9:	1f 84 00 00 00 00 00 

0000000000001bf0 <__scif_bind>:
 * If port ID zero is specified and allocation of a port ID fails -ENOSPC
 * will be returned.
 */
int
__scif_bind(scif_epd_t epd, uint16_t pn)
{
    1bf0:	55                   	push   %rbp
    1bf1:	48 89 e5             	mov    %rsp,%rbp
    1bf4:	41 57                	push   %r15
    1bf6:	41 56                	push   %r14
    1bf8:	41 55                	push   %r13
    1bfa:	41 54                	push   %r12
    1bfc:	53                   	push   %rbx
    1bfd:	48 83 ec 18          	sub    $0x18,%rsp
    1c01:	e8 00 00 00 00       	callq  1c06 <__scif_bind+0x16>
	struct endpt *ep = (struct endpt *)epd;
	unsigned long sflags;
	int ret = 0;
	int tmp;

	pr_debug("SCIFAPI bind: ep %p %s requested port number %d\n", 
    1c06:	8b 07                	mov    (%rdi),%eax
 * If port ID zero is specified and allocation of a port ID fails -ENOSPC
 * will be returned.
 */
int
__scif_bind(scif_epd_t epd, uint16_t pn)
{
    1c08:	41 89 f4             	mov    %esi,%r12d
    1c0b:	48 89 fb             	mov    %rdi,%rbx
    1c0e:	41 89 f7             	mov    %esi,%r15d
	int tmp;

	pr_debug("SCIFAPI bind: ep %p %s requested port number %d\n", 
		    ep, scif_ep_states[ep->state], pn);

	might_sleep();
    1c11:	e8 00 00 00 00       	callq  1c16 <__scif_bind+0x26>
		 * Modeled on http://www.ietf.org/rfc/rfc1700.txt?number=1700
		 * SCIF ports below SCIF_ADMIN_PORT_END can only be bound by
		 * system (or root) processes or by processes executed by
		 * privileged users.
		 */
		if ( pn < SCIF_ADMIN_PORT_END && !capable(CAP_SYS_ADMIN)) {
    1c16:	41 8d 44 24 ff       	lea    -0x1(%r12),%eax
    1c1b:	66 3d fe 03          	cmp    $0x3fe,%ax
    1c1f:	76 6f                	jbe    1c90 <__scif_bind+0xa0>
 * Map the spin_lock functions to the raw variants for PREEMPT_RT=n
 */

static inline raw_spinlock_t *spinlock_check(spinlock_t *lock)
{
	return &lock->rlock;
    1c21:	4c 8d 6b 04          	lea    0x4(%rbx),%r13
			ret = -EACCES;
			goto scif_bind_admin_exit;
		}
	}

	spin_lock_irqsave(&ep->lock, sflags);
    1c25:	4c 89 ef             	mov    %r13,%rdi
    1c28:	e8 00 00 00 00       	callq  1c2d <__scif_bind+0x3d>
    1c2d:	48 89 c6             	mov    %rax,%rsi
	if (ep->state == SCIFEP_BOUND) {
    1c30:	8b 03                	mov    (%rbx),%eax
    1c32:	83 f8 02             	cmp    $0x2,%eax
    1c35:	74 4b                	je     1c82 <__scif_bind+0x92>
		ret = -EINVAL;
		goto scif_bind_exit;
	} else if (ep->state != SCIFEP_UNBOUND) {
    1c37:	8b 03                	mov    (%rbx),%eax
		ret = -EISCONN;
    1c39:	41 be 96 ff ff ff    	mov    $0xffffff96,%r14d

	spin_lock_irqsave(&ep->lock, sflags);
	if (ep->state == SCIFEP_BOUND) {
		ret = -EINVAL;
		goto scif_bind_exit;
	} else if (ep->state != SCIFEP_UNBOUND) {
    1c3f:	83 f8 01             	cmp    $0x1,%eax
    1c42:	74 1c                	je     1c60 <__scif_bind+0x70>
	raw_spin_unlock_irq(&lock->rlock);
}

static inline void spin_unlock_irqrestore(spinlock_t *lock, unsigned long flags)
{
	raw_spin_unlock_irqrestore(&lock->rlock, flags);
    1c44:	4c 89 ef             	mov    %r13,%rdi
    1c47:	e8 00 00 00 00       	callq  1c4c <__scif_bind+0x5c>

scif_bind_exit:
	spin_unlock_irqrestore(&ep->lock, sflags);
scif_bind_admin_exit:
	return ret;
}
    1c4c:	48 83 c4 18          	add    $0x18,%rsp
    1c50:	44 89 f0             	mov    %r14d,%eax
    1c53:	5b                   	pop    %rbx
    1c54:	41 5c                	pop    %r12
    1c56:	41 5d                	pop    %r13
    1c58:	41 5e                	pop    %r14
    1c5a:	41 5f                	pop    %r15
    1c5c:	5d                   	pop    %rbp
    1c5d:	c3                   	retq   
    1c5e:	66 90                	xchg   %ax,%ax
	} else if (ep->state != SCIFEP_UNBOUND) {
		ret = -EISCONN;
		goto scif_bind_exit;
	}

	if (pn) {
    1c60:	66 45 85 e4          	test   %r12w,%r12w
    1c64:	48 89 75 c8          	mov    %rsi,-0x38(%rbp)
    1c68:	74 46                	je     1cb0 <__scif_bind+0xc0>
		if ((tmp = rsrv_scif_port(pn)) != pn) {
    1c6a:	45 0f b7 f4          	movzwl %r12w,%r14d
    1c6e:	44 89 f7             	mov    %r14d,%edi
    1c71:	e8 00 00 00 00       	callq  1c76 <__scif_bind+0x86>
    1c76:	48 8b 75 c8          	mov    -0x38(%rbp),%rsi
    1c7a:	0f b7 c0             	movzwl %ax,%eax
    1c7d:	41 39 c6             	cmp    %eax,%r14d
    1c80:	74 4d                	je     1ccf <__scif_bind+0xdf>
		}
	}

	spin_lock_irqsave(&ep->lock, sflags);
	if (ep->state == SCIFEP_BOUND) {
		ret = -EINVAL;
    1c82:	41 be ea ff ff ff    	mov    $0xffffffea,%r14d
    1c88:	eb ba                	jmp    1c44 <__scif_bind+0x54>
    1c8a:	66 0f 1f 44 00 00    	nopw   0x0(%rax,%rax,1)
		 * Modeled on http://www.ietf.org/rfc/rfc1700.txt?number=1700
		 * SCIF ports below SCIF_ADMIN_PORT_END can only be bound by
		 * system (or root) processes or by processes executed by
		 * privileged users.
		 */
		if ( pn < SCIF_ADMIN_PORT_END && !capable(CAP_SYS_ADMIN)) {
    1c90:	bf 15 00 00 00       	mov    $0x15,%edi
			ret = -EACCES;
    1c95:	41 be f3 ff ff ff    	mov    $0xfffffff3,%r14d
		 * Modeled on http://www.ietf.org/rfc/rfc1700.txt?number=1700
		 * SCIF ports below SCIF_ADMIN_PORT_END can only be bound by
		 * system (or root) processes or by processes executed by
		 * privileged users.
		 */
		if ( pn < SCIF_ADMIN_PORT_END && !capable(CAP_SYS_ADMIN)) {
    1c9b:	e8 00 00 00 00       	callq  1ca0 <__scif_bind+0xb0>
    1ca0:	84 c0                	test   %al,%al
    1ca2:	0f 85 79 ff ff ff    	jne    1c21 <__scif_bind+0x31>
    1ca8:	eb a2                	jmp    1c4c <__scif_bind+0x5c>
    1caa:	66 0f 1f 44 00 00    	nopw   0x0(%rax,%rax,1)
		if ((tmp = rsrv_scif_port(pn)) != pn) {
			ret = -EINVAL;
			goto scif_bind_exit;
		}
	} else {
		pn = get_scif_port();
    1cb0:	e8 00 00 00 00       	callq  1cb5 <__scif_bind+0xc5>
		if (!pn) {
			ret = -ENOSPC;
    1cb5:	41 be e4 ff ff ff    	mov    $0xffffffe4,%r14d
			ret = -EINVAL;
			goto scif_bind_exit;
		}
	} else {
		pn = get_scif_port();
		if (!pn) {
    1cbb:	48 8b 75 c8          	mov    -0x38(%rbp),%rsi
    1cbf:	66 85 c0             	test   %ax,%ax
		if ((tmp = rsrv_scif_port(pn)) != pn) {
			ret = -EINVAL;
			goto scif_bind_exit;
		}
	} else {
		pn = get_scif_port();
    1cc2:	41 89 c7             	mov    %eax,%r15d
		if (!pn) {
    1cc5:	0f 84 79 ff ff ff    	je     1c44 <__scif_bind+0x54>
    1ccb:	44 0f b7 f0          	movzwl %ax,%r14d
			ret = -ENOSPC;
			goto scif_bind_exit;
		}
	}

	ep->state = SCIFEP_BOUND;
    1ccf:	c7 03 02 00 00 00    	movl   $0x2,(%rbx)
	ep->port.node = ms_info.mi_nodeid;
    1cd5:	8b 05 00 00 00 00    	mov    0x0(%rip),%eax        # 1cdb <__scif_bind+0xeb>
	ep->port.port = pn;
    1cdb:	66 44 89 7b 08       	mov    %r15w,0x8(%rbx)
			goto scif_bind_exit;
		}
	}

	ep->state = SCIFEP_BOUND;
	ep->port.node = ms_info.mi_nodeid;
    1ce0:	66 89 43 06          	mov    %ax,0x6(%rbx)
    1ce4:	e9 5b ff ff ff       	jmpq   1c44 <__scif_bind+0x54>
    1ce9:	0f 1f 80 00 00 00 00 	nopl   0x0(%rax)

0000000000001cf0 <scif_bind>:
	return ret;
}

int
scif_bind(scif_epd_t epd, uint16_t pn)
{
    1cf0:	55                   	push   %rbp
    1cf1:	48 89 e5             	mov    %rsp,%rbp
    1cf4:	41 55                	push   %r13
    1cf6:	41 54                	push   %r12
    1cf8:	53                   	push   %rbx
    1cf9:	48 83 ec 08          	sub    $0x8,%rsp
    1cfd:	e8 00 00 00 00       	callq  1d02 <scif_bind+0x12>
 * to synchronize calling this API with put_kref_count.
 */
static __always_inline void
get_kref_count(scif_epd_t epd)
{
	kref_get(&(epd->ref_count));
    1d02:	4c 8d a7 70 01 00 00 	lea    0x170(%rdi),%r12
    1d09:	49 89 fd             	mov    %rdi,%r13
    1d0c:	89 f3                	mov    %esi,%ebx
    1d0e:	4c 89 e7             	mov    %r12,%rdi
    1d11:	e8 00 00 00 00       	callq  1d16 <scif_bind+0x26>
	int ret;
	get_kref_count(epd);
	ret = __scif_bind(epd, pn);
    1d16:	0f b7 f3             	movzwl %bx,%esi
    1d19:	4c 89 ef             	mov    %r13,%rdi
    1d1c:	e8 00 00 00 00       	callq  1d21 <scif_bind+0x31>
 * to synchronize calling this API with get_kref_count.
 */
static __always_inline void
put_kref_count(scif_epd_t epd)
{
	kref_put(&(epd->ref_count), scif_ref_rel);
    1d21:	4c 89 e7             	mov    %r12,%rdi
    1d24:	48 c7 c6 00 00 00 00 	mov    $0x0,%rsi
    1d2b:	89 c3                	mov    %eax,%ebx
    1d2d:	e8 00 00 00 00       	callq  1d32 <scif_bind+0x42>
	put_kref_count(epd);
	return ret;
}
    1d32:	48 83 c4 08          	add    $0x8,%rsp
    1d36:	89 d8                	mov    %ebx,%eax
    1d38:	5b                   	pop    %rbx
    1d39:	41 5c                	pop    %r12
    1d3b:	41 5d                	pop    %r13
    1d3d:	5d                   	pop    %rbp
    1d3e:	c3                   	retq   
    1d3f:	90                   	nop

0000000000001d40 <__scif_listen>:
 * If the end point is not in the bound state -EINVAL or -EISCONN is returned.
 *
 */
int
__scif_listen(scif_epd_t epd, int backlog)
{
    1d40:	55                   	push   %rbp
    1d41:	48 89 e5             	mov    %rsp,%rbp
    1d44:	41 56                	push   %r14
    1d46:	41 55                	push   %r13
    1d48:	41 54                	push   %r12
    1d4a:	53                   	push   %rbx
    1d4b:	e8 00 00 00 00       	callq  1d50 <__scif_listen+0x10>
	struct endpt *ep = (struct endpt *)epd;
	unsigned long sflags;

	pr_debug("SCIFAPI listen: ep %p %s\n", ep, scif_ep_states[ep->state]);
    1d50:	8b 07                	mov    (%rdi),%eax
 * If the end point is not in the bound state -EINVAL or -EISCONN is returned.
 *
 */
int
__scif_listen(scif_epd_t epd, int backlog)
{
    1d52:	48 89 fb             	mov    %rdi,%rbx
    1d55:	41 89 f5             	mov    %esi,%r13d
	struct endpt *ep = (struct endpt *)epd;
	unsigned long sflags;

	pr_debug("SCIFAPI listen: ep %p %s\n", ep, scif_ep_states[ep->state]);

	might_sleep();
    1d58:	e8 00 00 00 00       	callq  1d5d <__scif_listen+0x1d>
 * Map the spin_lock functions to the raw variants for PREEMPT_RT=n
 */

static inline raw_spinlock_t *spinlock_check(spinlock_t *lock)
{
	return &lock->rlock;
    1d5d:	4c 8d 63 04          	lea    0x4(%rbx),%r12
	spin_lock_irqsave(&ep->lock, sflags);
    1d61:	4c 89 e7             	mov    %r12,%rdi
    1d64:	e8 00 00 00 00       	callq  1d69 <__scif_listen+0x29>
	switch (ep->state) {
    1d69:	8b 0b                	mov    (%rbx),%ecx
	unsigned long sflags;

	pr_debug("SCIFAPI listen: ep %p %s\n", ep, scif_ep_states[ep->state]);

	might_sleep();
	spin_lock_irqsave(&ep->lock, sflags);
    1d6b:	49 89 c6             	mov    %rax,%r14
    1d6e:	83 f9 0a             	cmp    $0xa,%ecx
    1d71:	77 45                	ja     1db8 <__scif_listen+0x78>
    1d73:	ba 01 00 00 00       	mov    $0x1,%edx
    1d78:	48 d3 e2             	shl    %cl,%rdx
    1d7b:	f7 c2 83 03 00 00    	test   $0x383,%edx
    1d81:	75 19                	jne    1d9c <__scif_listen+0x5c>
    1d83:	f6 c2 78             	test   $0x78,%dl
    1d86:	0f 85 f6 00 00 00    	jne    1e82 <__scif_listen+0x142>
    1d8c:	80 e6 04             	and    $0x4,%dh
    1d8f:	74 27                	je     1db8 <__scif_listen+0x78>
	switch (ep->state) {
	case SCIFEP_ZOMBIE:
		BUG_ON(SCIFEP_ZOMBIE == ep->state);
    1d91:	8b 03                	mov    (%rbx),%eax
    1d93:	83 f8 0a             	cmp    $0xa,%eax
    1d96:	0f 84 e4 00 00 00    	je     1e80 <__scif_listen+0x140>
	raw_spin_unlock_irq(&lock->rlock);
}

static inline void spin_unlock_irqrestore(spinlock_t *lock, unsigned long flags)
{
	raw_spin_unlock_irqrestore(&lock->rlock, flags);
    1d9c:	4c 89 f6             	mov    %r14,%rsi
    1d9f:	4c 89 e7             	mov    %r12,%rdi
    1da2:	e8 00 00 00 00       	callq  1da7 <__scif_listen+0x67>

	spin_lock_irqsave(&ms_info.mi_eplock, sflags);
	list_add_tail(&ep->list, &ms_info.mi_listen);
	spin_unlock_irqrestore(&ms_info.mi_eplock, sflags);
	return 0;
}
    1da7:	5b                   	pop    %rbx
	case SCIFEP_CLOSING:
	case SCIFEP_CLLISTEN:
	case SCIFEP_UNBOUND:
	case SCIFEP_DISCONNECTED:
		spin_unlock_irqrestore(&ep->lock, sflags);
		return -EINVAL;
    1da8:	b8 ea ff ff ff       	mov    $0xffffffea,%eax

	spin_lock_irqsave(&ms_info.mi_eplock, sflags);
	list_add_tail(&ep->list, &ms_info.mi_listen);
	spin_unlock_irqrestore(&ms_info.mi_eplock, sflags);
	return 0;
}
    1dad:	41 5c                	pop    %r12
    1daf:	41 5d                	pop    %r13
    1db1:	41 5e                	pop    %r14
    1db3:	5d                   	pop    %rbp
    1db4:	c3                   	retq   
    1db5:	0f 1f 00             	nopl   (%rax)
	ep->state = SCIFEP_LISTENING;
	ep->backlog = backlog;

	ep->conreqcnt = 0;
	ep->acceptcnt = 0;
	INIT_LIST_HEAD(&ep->conlist);	// List of connection requests
    1db8:	48 8d 93 78 01 00 00 	lea    0x178(%rbx),%rdx
	init_waitqueue_head(&ep->conwq);	// Wait for connection queue
    1dbf:	48 c7 c6 00 00 00 00 	mov    $0x0,%rsi
		return -EISCONN;
	case SCIFEP_BOUND:
		break;
	}

	ep->state = SCIFEP_LISTENING;
    1dc6:	c7 03 03 00 00 00    	movl   $0x3,(%rbx)
#define LIST_HEAD(name) \
	struct list_head name = LIST_HEAD_INIT(name)

static inline void INIT_LIST_HEAD(struct list_head *list)
{
	list->next = list;
    1dcc:	48 89 93 78 01 00 00 	mov    %rdx,0x178(%rbx)
	ep->backlog = backlog;

	ep->conreqcnt = 0;
	ep->acceptcnt = 0;
	INIT_LIST_HEAD(&ep->conlist);	// List of connection requests
	init_waitqueue_head(&ep->conwq);	// Wait for connection queue
    1dd3:	48 8d bb 88 01 00 00 	lea    0x188(%rbx),%rdi
	list->prev = list;
    1dda:	48 89 93 80 01 00 00 	mov    %rdx,0x180(%rbx)
	case SCIFEP_BOUND:
		break;
	}

	ep->state = SCIFEP_LISTENING;
	ep->backlog = backlog;
    1de1:	44 88 6b 0e          	mov    %r13b,0xe(%rbx)

	ep->conreqcnt = 0;
    1de5:	c7 83 58 01 00 00 00 	movl   $0x0,0x158(%rbx)
    1dec:	00 00 00 
	ep->acceptcnt = 0;
    1def:	c7 83 60 02 00 00 00 	movl   $0x0,0x260(%rbx)
    1df6:	00 00 00 
	INIT_LIST_HEAD(&ep->conlist);	// List of connection requests
	init_waitqueue_head(&ep->conwq);	// Wait for connection queue
    1df9:	e8 00 00 00 00       	callq  1dfe <__scif_listen+0xbe>
	INIT_LIST_HEAD(&ep->li_accept);	// User ep list for ACCEPTREG calls
    1dfe:	48 8d 93 50 02 00 00 	lea    0x250(%rbx),%rdx
    1e05:	4c 89 f6             	mov    %r14,%rsi
    1e08:	4c 89 e7             	mov    %r12,%rdi
#define LIST_HEAD(name) \
	struct list_head name = LIST_HEAD_INIT(name)

static inline void INIT_LIST_HEAD(struct list_head *list)
{
	list->next = list;
    1e0b:	48 89 93 50 02 00 00 	mov    %rdx,0x250(%rbx)
	list->prev = list;
    1e12:	48 89 93 58 02 00 00 	mov    %rdx,0x258(%rbx)
    1e19:	e8 00 00 00 00       	callq  1e1e <__scif_listen+0xde>
	spin_unlock_irqrestore(&ep->lock, sflags);

	// Listen status is complete so delete the qp information not needed
	// on a listen before placing on the list of listening ep's
	micscif_teardown_ep((void *)ep);
    1e1e:	48 89 df             	mov    %rbx,%rdi
    1e21:	e8 00 00 00 00       	callq  1e26 <__scif_listen+0xe6>
	ep->qp_info.qp = NULL;

	spin_lock_irqsave(&ms_info.mi_eplock, sflags);
    1e26:	48 c7 c7 00 00 00 00 	mov    $0x0,%rdi
	spin_unlock_irqrestore(&ep->lock, sflags);

	// Listen status is complete so delete the qp information not needed
	// on a listen before placing on the list of listening ep's
	micscif_teardown_ep((void *)ep);
	ep->qp_info.qp = NULL;
    1e2d:	48 c7 43 10 00 00 00 	movq   $0x0,0x10(%rbx)
    1e34:	00 

	spin_lock_irqsave(&ms_info.mi_eplock, sflags);
    1e35:	e8 00 00 00 00       	callq  1e3a <__scif_listen+0xfa>
 * Insert a new entry before the specified head.
 * This is useful for implementing queues.
 */
static inline void list_add_tail(struct list_head *new, struct list_head *head)
{
	__list_add(new, head->prev, head);
    1e3a:	48 8b 15 00 00 00 00 	mov    0x0(%rip),%rdx        # 1e41 <__scif_listen+0x101>
	list_add_tail(&ep->list, &ms_info.mi_listen);
    1e41:	48 8d 8b 40 02 00 00 	lea    0x240(%rbx),%rcx
static inline void __list_add(struct list_head *new,
			      struct list_head *prev,
			      struct list_head *next)
{
	next->prev = new;
	new->next = next;
    1e48:	48 c7 83 40 02 00 00 	movq   $0x0,0x240(%rbx)
    1e4f:	00 00 00 00 
#ifndef CONFIG_DEBUG_LIST
static inline void __list_add(struct list_head *new,
			      struct list_head *prev,
			      struct list_head *next)
{
	next->prev = new;
    1e53:	48 89 0d 00 00 00 00 	mov    %rcx,0x0(%rip)        # 1e5a <__scif_listen+0x11a>
    1e5a:	48 89 c6             	mov    %rax,%rsi
    1e5d:	48 c7 c7 00 00 00 00 	mov    $0x0,%rdi
	new->next = next;
	new->prev = prev;
    1e64:	48 89 93 48 02 00 00 	mov    %rdx,0x248(%rbx)
	prev->next = new;
    1e6b:	48 89 0a             	mov    %rcx,(%rdx)
    1e6e:	e8 00 00 00 00       	callq  1e73 <__scif_listen+0x133>
	spin_unlock_irqrestore(&ms_info.mi_eplock, sflags);
	return 0;
    1e73:	31 c0                	xor    %eax,%eax
}
    1e75:	5b                   	pop    %rbx
    1e76:	41 5c                	pop    %r12
    1e78:	41 5d                	pop    %r13
    1e7a:	41 5e                	pop    %r14
    1e7c:	5d                   	pop    %rbp
    1e7d:	c3                   	retq   
    1e7e:	66 90                	xchg   %ax,%ax

	might_sleep();
	spin_lock_irqsave(&ep->lock, sflags);
	switch (ep->state) {
	case SCIFEP_ZOMBIE:
		BUG_ON(SCIFEP_ZOMBIE == ep->state);
    1e80:	0f 0b                	ud2    
    1e82:	48 89 c6             	mov    %rax,%rsi
    1e85:	4c 89 e7             	mov    %r12,%rdi
    1e88:	e8 00 00 00 00       	callq  1e8d <__scif_listen+0x14d>
	case SCIFEP_LISTENING:
	case SCIFEP_CONNECTED:
	case SCIFEP_CONNECTING:
	case SCIFEP_MAPPING:
		spin_unlock_irqrestore(&ep->lock, sflags);
		return -EISCONN;
    1e8d:	b8 96 ff ff ff       	mov    $0xffffff96,%eax
    1e92:	eb e1                	jmp    1e75 <__scif_listen+0x135>
    1e94:	66 66 66 2e 0f 1f 84 	data32 data32 nopw %cs:0x0(%rax,%rax,1)
    1e9b:	00 00 00 00 00 

0000000000001ea0 <scif_listen>:
	return 0;
}

int
scif_listen(scif_epd_t epd, int backlog)
{
    1ea0:	55                   	push   %rbp
    1ea1:	48 89 e5             	mov    %rsp,%rbp
    1ea4:	41 55                	push   %r13
    1ea6:	41 54                	push   %r12
    1ea8:	53                   	push   %rbx
    1ea9:	48 83 ec 08          	sub    $0x8,%rsp
    1ead:	e8 00 00 00 00       	callq  1eb2 <scif_listen+0x12>
 * to synchronize calling this API with put_kref_count.
 */
static __always_inline void
get_kref_count(scif_epd_t epd)
{
	kref_get(&(epd->ref_count));
    1eb2:	48 8d 9f 70 01 00 00 	lea    0x170(%rdi),%rbx
    1eb9:	49 89 fc             	mov    %rdi,%r12
    1ebc:	41 89 f5             	mov    %esi,%r13d
    1ebf:	48 89 df             	mov    %rbx,%rdi
    1ec2:	e8 00 00 00 00       	callq  1ec7 <scif_listen+0x27>
	int ret;
	get_kref_count(epd);
	ret = __scif_listen(epd, backlog);
    1ec7:	44 89 ee             	mov    %r13d,%esi
    1eca:	4c 89 e7             	mov    %r12,%rdi
    1ecd:	e8 00 00 00 00       	callq  1ed2 <scif_listen+0x32>
 * to synchronize calling this API with get_kref_count.
 */
static __always_inline void
put_kref_count(scif_epd_t epd)
{
	kref_put(&(epd->ref_count), scif_ref_rel);
    1ed2:	48 89 df             	mov    %rbx,%rdi
    1ed5:	48 c7 c6 00 00 00 00 	mov    $0x0,%rsi
    1edc:	41 89 c4             	mov    %eax,%r12d
    1edf:	e8 00 00 00 00       	callq  1ee4 <scif_listen+0x44>
	put_kref_count(epd);
	return ret;
}
    1ee4:	48 83 c4 08          	add    $0x8,%rsp
    1ee8:	44 89 e0             	mov    %r12d,%eax
    1eeb:	5b                   	pop    %rbx
    1eec:	41 5c                	pop    %r12
    1eee:	41 5d                	pop    %r13
    1ef0:	5d                   	pop    %rbp
    1ef1:	c3                   	retq   
    1ef2:	66 66 66 66 66 2e 0f 	data32 data32 data32 data32 nopw %cs:0x0(%rax,%rax,1)
    1ef9:	1f 84 00 00 00 00 00 

0000000000001f00 <__scif_connect>:
 * If the remote side is not responding to connection requests the caller may
 * terminate this funciton with a signal.  If so a -EINTR will be returned.
 */
int
__scif_connect(scif_epd_t epd, struct scif_portID *dst)
{
    1f00:	55                   	push   %rbp
    1f01:	48 89 e5             	mov    %rsp,%rbp
    1f04:	41 57                	push   %r15
    1f06:	41 56                	push   %r14
    1f08:	41 55                	push   %r13
    1f0a:	41 54                	push   %r12
    1f0c:	53                   	push   %rbx
    1f0d:	48 81 ec a8 00 00 00 	sub    $0xa8,%rsp
    1f14:	e8 00 00 00 00       	callq  1f19 <__scif_connect+0x19>
#endif

	pr_debug("SCIFAPI connect: ep %p %s\n", ep, 
					scif_ep_states[ep->state]);

	if (dst->node > MAX_BOARD_SUPPORTED)
    1f19:	66 81 3e 00 01       	cmpw   $0x100,(%rsi)
	int term_sent = 0;
#ifdef _MIC_SCIF_
	struct micscif_dev *remote_dev;
#endif

	pr_debug("SCIFAPI connect: ep %p %s\n", ep, 
    1f1e:	8b 07                	mov    (%rdi),%eax
					scif_ep_states[ep->state]);

	if (dst->node > MAX_BOARD_SUPPORTED)
    1f20:	77 4e                	ja     1f70 <__scif_connect+0x70>
    1f22:	49 89 f4             	mov    %rsi,%r12
    1f25:	48 89 fb             	mov    %rdi,%rbx
		return -ENODEV;

	might_sleep();
    1f28:	e8 00 00 00 00       	callq  1f2d <__scif_connect+0x2d>
		SCIFDEV_STOPPED == remote_dev->sd_state) && mic_p2p_enable)
		if ((err = scif_p2p_connect(dst->node)))
			goto connect_error_simple;
#endif

	if (SCIFDEV_RUNNING != scif_dev[dst->node].sd_state &&
    1f2d:	41 0f b7 04 24       	movzwl (%r12),%eax
    1f32:	48 89 c2             	mov    %rax,%rdx
    1f35:	48 c1 e0 09          	shl    $0x9,%rax
    1f39:	48 c1 e2 05          	shl    $0x5,%rdx
    1f3d:	48 29 d0             	sub    %rdx,%rax
    1f40:	8b 80 00 00 00 00    	mov    0x0(%rax),%eax
    1f46:	83 e8 02             	sub    $0x2,%eax
    1f49:	83 f8 01             	cmp    $0x1,%eax
    1f4c:	77 22                	ja     1f70 <__scif_connect+0x70>
 * Map the spin_lock functions to the raw variants for PREEMPT_RT=n
 */

static inline raw_spinlock_t *spinlock_check(spinlock_t *lock)
{
	return &lock->rlock;
    1f4e:	4c 8d 7b 04          	lea    0x4(%rbx),%r15
		SCIFDEV_SLEEPING != scif_dev[dst->node].sd_state)
		return -ENODEV;

	spin_lock_irqsave(&ep->lock, sflags);
    1f52:	4c 89 ff             	mov    %r15,%rdi
    1f55:	e8 00 00 00 00       	callq  1f5a <__scif_connect+0x5a>
	switch (ep->state) {
    1f5a:	8b 13                	mov    (%rbx),%edx

	if (SCIFDEV_RUNNING != scif_dev[dst->node].sd_state &&
		SCIFDEV_SLEEPING != scif_dev[dst->node].sd_state)
		return -ENODEV;

	spin_lock_irqsave(&ep->lock, sflags);
    1f5c:	49 89 c6             	mov    %rax,%r14
	switch (ep->state) {
    1f5f:	83 fa 0a             	cmp    $0xa,%edx
    1f62:	77 68                	ja     1fcc <__scif_connect+0xcc>
    1f64:	ff 24 d5 00 00 00 00 	jmpq   *0x0(,%rdx,8)
    1f6b:	0f 1f 44 00 00       	nopl   0x0(%rax,%rax,1)

	pr_debug("SCIFAPI connect: ep %p %s\n", ep, 
					scif_ep_states[ep->state]);

	if (dst->node > MAX_BOARD_SUPPORTED)
		return -ENODEV;
    1f70:	bb ed ff ff ff       	mov    $0xffffffed,%ebx

connect_simple_unlock:
	spin_unlock_irqrestore(&ep->lock, sflags);
connect_error_simple:
	return err;
}
    1f75:	48 81 c4 a8 00 00 00 	add    $0xa8,%rsp
    1f7c:	89 d8                	mov    %ebx,%eax
    1f7e:	5b                   	pop    %rbx
    1f7f:	41 5c                	pop    %r12
    1f81:	41 5d                	pop    %r13
    1f83:	41 5e                	pop    %r14
    1f85:	41 5f                	pop    %r15
    1f87:	5d                   	pop    %rbp
    1f88:	c3                   	retq   
    1f89:	0f 1f 80 00 00 00 00 	nopl   0x0(%rax)
		err = -EOPNOTSUPP;
		goto connect_simple_unlock;
	case SCIFEP_CONNECTED:
	case SCIFEP_CONNECTING:
	case SCIFEP_MAPPING:
		err = -EISCONN;
    1f90:	bb 96 ff ff ff       	mov    $0xffffff96,%ebx
	raw_spin_unlock_irq(&lock->rlock);
}

static inline void spin_unlock_irqrestore(spinlock_t *lock, unsigned long flags)
{
	raw_spin_unlock_irqrestore(&lock->rlock, flags);
    1f95:	4c 89 f6             	mov    %r14,%rsi
    1f98:	4c 89 ff             	mov    %r15,%rdi
    1f9b:	e8 00 00 00 00       	callq  1fa0 <__scif_connect+0xa0>
    1fa0:	eb d3                	jmp    1f75 <__scif_connect+0x75>
    1fa2:	66 0f 1f 44 00 00    	nopw   0x0(%rax,%rax,1)
	case SCIFEP_ZOMBIE:
		BUG_ON(SCIFEP_ZOMBIE == ep->state);
	case SCIFEP_CLOSED:
	case SCIFEP_CLOSING:
	case SCIFEP_DISCONNECTED:
		err = -EINVAL;
    1fa8:	bb ea ff ff ff       	mov    $0xffffffea,%ebx
    1fad:	eb e6                	jmp    1f95 <__scif_connect+0x95>
    1faf:	90                   	nop
	case SCIFEP_CONNECTING:
	case SCIFEP_MAPPING:
		err = -EISCONN;
		goto connect_simple_unlock;
	case SCIFEP_UNBOUND:
		if ((ep->port.port = get_scif_port()) == 0) {
    1fb0:	e8 00 00 00 00       	callq  1fb5 <__scif_connect+0xb5>
    1fb5:	66 85 c0             	test   %ax,%ax
    1fb8:	66 89 43 08          	mov    %ax,0x8(%rbx)
    1fbc:	0f 84 ae 02 00 00    	je     2270 <__scif_connect+0x370>
			err = -ENOSPC;
			goto connect_simple_unlock;
		}
		ep->port.node = ms_info.mi_nodeid;
    1fc2:	8b 05 00 00 00 00    	mov    0x0(%rip),%eax        # 1fc8 <__scif_connect+0xc8>
    1fc8:	66 89 43 06          	mov    %ax,0x6(%rbx)
		break;
	}

	// State of end point now becomes CONNECTING
	ep->state = SCIFEP_CONNECTING;
	init_waitqueue_head(&ep->conwq);	// Wait for connection queue
    1fcc:	48 8d 83 88 01 00 00 	lea    0x188(%rbx),%rax
    1fd3:	48 c7 c6 00 00 00 00 	mov    $0x0,%rsi
	case SCIFEP_BOUND:
		break;
	}

	// State of end point now becomes CONNECTING
	ep->state = SCIFEP_CONNECTING;
    1fda:	c7 03 05 00 00 00    	movl   $0x5,(%rbx)
	init_waitqueue_head(&ep->conwq);	// Wait for connection queue
    1fe0:	48 89 c7             	mov    %rax,%rdi
    1fe3:	48 89 85 68 ff ff ff 	mov    %rax,-0x98(%rbp)
    1fea:	e8 00 00 00 00       	callq  1fef <__scif_connect+0xef>
	init_waitqueue_head(&ep->diswq);	// Wait for disconnect ack queue
    1fef:	4c 8d ab b8 01 00 00 	lea    0x1b8(%rbx),%r13
    1ff6:	48 c7 c6 00 00 00 00 	mov    $0x0,%rsi
    1ffd:	4c 89 ef             	mov    %r13,%rdi
    2000:	e8 00 00 00 00       	callq  2005 <__scif_connect+0x105>
	init_waitqueue_head(&ep->sendwq);	// Wait for data to be consumed.
    2005:	48 8d bb d0 01 00 00 	lea    0x1d0(%rbx),%rdi
    200c:	48 c7 c6 00 00 00 00 	mov    $0x0,%rsi
    2013:	e8 00 00 00 00       	callq  2018 <__scif_connect+0x118>
	init_waitqueue_head(&ep->recvwq);	// Wait for data to be produced.
    2018:	48 8d bb e8 01 00 00 	lea    0x1e8(%rbx),%rdi
    201f:	48 c7 c6 00 00 00 00 	mov    $0x0,%rsi
    2026:	e8 00 00 00 00       	callq  202b <__scif_connect+0x12b>
	ep->remote_dev = &scif_dev[dst->node];
    202b:	41 0f b7 14 24       	movzwl (%r12),%edx
    2030:	4c 89 ff             	mov    %r15,%rdi
    2033:	4c 89 f6             	mov    %r14,%rsi
	ep->sd_state = SCIFDEV_RUNNING;

	ep->qp_info.qp->magic = SCIFEP_MAGIC;
    2036:	48 b9 1f 5c 00 00 00 	movabs $0x5c1f000000005c1f,%rcx
    203d:	00 1f 5c 
	init_waitqueue_head(&ep->conwq);	// Wait for connection queue
	init_waitqueue_head(&ep->diswq);	// Wait for disconnect ack queue
	init_waitqueue_head(&ep->sendwq);	// Wait for data to be consumed.
	init_waitqueue_head(&ep->recvwq);	// Wait for data to be produced.
	ep->remote_dev = &scif_dev[dst->node];
	ep->sd_state = SCIFDEV_RUNNING;
    2040:	c7 83 5c 01 00 00 02 	movl   $0x2,0x15c(%rbx)
    2047:	00 00 00 
	ep->state = SCIFEP_CONNECTING;
	init_waitqueue_head(&ep->conwq);	// Wait for connection queue
	init_waitqueue_head(&ep->diswq);	// Wait for disconnect ack queue
	init_waitqueue_head(&ep->sendwq);	// Wait for data to be consumed.
	init_waitqueue_head(&ep->recvwq);	// Wait for data to be produced.
	ep->remote_dev = &scif_dev[dst->node];
    204a:	48 89 d0             	mov    %rdx,%rax
    204d:	48 c1 e2 09          	shl    $0x9,%rdx
    2051:	48 c1 e0 05          	shl    $0x5,%rax
    2055:	48 29 c2             	sub    %rax,%rdx
	ep->sd_state = SCIFDEV_RUNNING;

	ep->qp_info.qp->magic = SCIFEP_MAGIC;
    2058:	48 8b 43 10          	mov    0x10(%rbx),%rax
	ep->state = SCIFEP_CONNECTING;
	init_waitqueue_head(&ep->conwq);	// Wait for connection queue
	init_waitqueue_head(&ep->diswq);	// Wait for disconnect ack queue
	init_waitqueue_head(&ep->sendwq);	// Wait for data to be consumed.
	init_waitqueue_head(&ep->recvwq);	// Wait for data to be produced.
	ep->remote_dev = &scif_dev[dst->node];
    205c:	48 81 c2 00 00 00 00 	add    $0x0,%rdx
    2063:	48 89 93 48 01 00 00 	mov    %rdx,0x148(%rbx)
	ep->sd_state = SCIFDEV_RUNNING;

	ep->qp_info.qp->magic = SCIFEP_MAGIC;
    206a:	48 89 48 08          	mov    %rcx,0x8(%rax)
	ep->qp_info.qp->ep = (uint64_t)ep;
    206e:	48 8b 43 10          	mov    0x10(%rbx),%rax
    2072:	48 89 18             	mov    %rbx,(%rax)
    2075:	e8 00 00 00 00       	callq  207a <__scif_connect+0x17a>
	spin_unlock_irqrestore(&ep->lock, sflags);

	if ((err = micscif_reserve_dma_chan(ep))) {
    207a:	48 89 df             	mov    %rbx,%rdi
    207d:	e8 00 00 00 00       	callq  2082 <__scif_connect+0x182>
    2082:	85 c0                	test   %eax,%eax
    2084:	41 89 c7             	mov    %eax,%r15d
    2087:	0f 85 3a 09 00 00    	jne    29c7 <__scif_connect+0xac7>
		printk(KERN_ERR "%s %d err %d\n", __func__, __LINE__, err);
		ep->state = SCIFEP_BOUND;
		goto connect_error_simple;
	}
	// Initiate the first part of the endpoint QP setup
	err = micscif_setup_qp_connect(ep->qp_info.qp, &ep->qp_info.qp_offset,
    208d:	48 8b 8b 48 01 00 00 	mov    0x148(%rbx),%rcx
    2094:	48 8d 73 18          	lea    0x18(%rbx),%rsi
    2098:	ba 00 10 00 00       	mov    $0x1000,%edx
    209d:	48 8b 7b 10          	mov    0x10(%rbx),%rdi
    20a1:	e8 00 00 00 00       	callq  20a6 <__scif_connect+0x1a6>
			ENDPT_QP_SIZE, ep->remote_dev);
	if (err) {
    20a6:	85 c0                	test   %eax,%eax
		printk(KERN_ERR "%s %d err %d\n", __func__, __LINE__, err);
		ep->state = SCIFEP_BOUND;
		goto connect_error_simple;
	}
	// Initiate the first part of the endpoint QP setup
	err = micscif_setup_qp_connect(ep->qp_info.qp, &ep->qp_info.qp_offset,
    20a8:	41 89 c7             	mov    %eax,%r15d
			ENDPT_QP_SIZE, ep->remote_dev);
	if (err) {
    20ab:	0f 85 ed 08 00 00    	jne    299e <__scif_connect+0xa9e>
			__func__, err, ep->qp_info.qp_offset);
		ep->state = SCIFEP_BOUND;
		goto connect_error_simple;
	}

	micscif_inc_node_refcnt(ep->remote_dev, 1);
    20b1:	4c 8b 83 48 01 00 00 	mov    0x148(%rbx),%r8
    20b8:	4c 8d 7d a4          	lea    -0x5c(%rbp),%r15
 */
static __always_inline void
micscif_inc_node_refcnt(struct micscif_dev *dev, long cnt)
{
#ifdef SCIF_ENABLE_PM
	if (unlikely(dev && !atomic_long_add_unless(&dev->scif_ref_cnt, 
    20bc:	4d 85 c0             	test   %r8,%r8
    20bf:	0f 85 1b 05 00 00    	jne    25e0 <__scif_connect+0x6e0>

	// Format connect message and send it
	msg.src = ep->port;
    20c5:	8b 43 06             	mov    0x6(%rbx),%eax
	msg.dst = *dst;
	msg.uop = SCIF_CNCT_REQ;
	msg.payload[0] = (uint64_t)ep;
	msg.payload[1] = ep->qp_info.qp_offset;
	if ((err = micscif_nodeqp_send(ep->remote_dev, &msg, ep))) {
    20c8:	48 89 da             	mov    %rbx,%rdx
    20cb:	4c 89 fe             	mov    %r15,%rsi
    20ce:	4c 89 c7             	mov    %r8,%rdi
	micscif_inc_node_refcnt(ep->remote_dev, 1);

	// Format connect message and send it
	msg.src = ep->port;
	msg.dst = *dst;
	msg.uop = SCIF_CNCT_REQ;
    20d1:	c7 45 ac 05 00 00 00 	movl   $0x5,-0x54(%rbp)
	msg.payload[0] = (uint64_t)ep;
    20d8:	48 89 5d b0          	mov    %rbx,-0x50(%rbp)
	}

	micscif_inc_node_refcnt(ep->remote_dev, 1);

	// Format connect message and send it
	msg.src = ep->port;
    20dc:	89 45 a4             	mov    %eax,-0x5c(%rbp)
	msg.dst = *dst;
    20df:	41 8b 04 24          	mov    (%r12),%eax
    20e3:	89 45 a8             	mov    %eax,-0x58(%rbp)
	msg.uop = SCIF_CNCT_REQ;
	msg.payload[0] = (uint64_t)ep;
	msg.payload[1] = ep->qp_info.qp_offset;
    20e6:	48 8b 43 18          	mov    0x18(%rbx),%rax
    20ea:	48 89 45 b8          	mov    %rax,-0x48(%rbp)
	if ((err = micscif_nodeqp_send(ep->remote_dev, &msg, ep))) {
    20ee:	e8 00 00 00 00       	callq  20f3 <__scif_connect+0x1f3>
    20f3:	85 c0                	test   %eax,%eax
    20f5:	41 89 c2             	mov    %eax,%r10d
    20f8:	0f 84 02 01 00 00    	je     2200 <__scif_connect+0x300>
		micscif_dec_node_refcnt(ep->remote_dev, 1);
    20fe:	4c 8b a3 48 01 00 00 	mov    0x148(%rbx),%r12
 */
static __always_inline void
micscif_dec_node_refcnt(struct micscif_dev *dev, long cnt)
{
#ifdef SCIF_ENABLE_PM
	if (dev) {
    2105:	89 c3                	mov    %eax,%ebx
    2107:	4d 85 e4             	test   %r12,%r12
    210a:	0f 84 65 fe ff ff    	je     1f75 <__scif_connect+0x75>
		if (unlikely((atomic_long_sub_return(cnt, 
    2110:	4d 8d ac 24 88 01 00 	lea    0x188(%r12),%r13
    2117:	00 
 *
 * Atomically adds @i to @v and returns @i + @v
 */
static inline long atomic64_add_return(long i, atomic64_t *v)
{
	return i + xadd(&v->counter, i);
    2118:	48 c7 c0 ff ff ff ff 	mov    $0xffffffffffffffff,%rax
    211f:	f0 49 0f c1 84 24 88 	lock xadd %rax,0x188(%r12)
    2126:	01 00 00 
    2129:	48 83 e8 01          	sub    $0x1,%rax
    212d:	0f 89 42 fe ff ff    	jns    1f75 <__scif_connect+0x75>
			&dev->scif_ref_cnt)) < 0)) {
			printk(KERN_ERR "%s %d dec dev %p node %d ref %ld "
    2133:	48 8b 45 08          	mov    0x8(%rbp),%rax
    2137:	4c 89 e1             	mov    %r12,%rcx
    213a:	ba a7 00 00 00       	mov    $0xa7,%edx
    213f:	48 c7 c6 00 00 00 00 	mov    $0x0,%rsi
 * Atomically reads the value of @v.
 * Doesn't imply a read memory barrier.
 */
static inline long atomic64_read(const atomic64_t *v)
{
	return (*(volatile long *)&(v)->counter);
    2146:	4d 8b 8c 24 88 01 00 	mov    0x188(%r12),%r9
    214d:	00 
    214e:	48 c7 c7 00 00 00 00 	mov    $0x0,%rdi
    2155:	44 89 95 68 ff ff ff 	mov    %r10d,-0x98(%rbp)
    215c:	45 0f b7 04 24       	movzwl (%r12),%r8d
    2161:	48 89 04 24          	mov    %rax,(%rsp)
    2165:	31 c0                	xor    %eax,%eax
    2167:	e8 00 00 00 00       	callq  216c <__scif_connect+0x26c>
    216c:	49 8b 8c 24 88 01 00 	mov    0x188(%r12),%rcx
    2173:	00 
static inline int atomic64_add_unless(atomic64_t *v, long a, long u)
{
	long c, old;
	c = atomic64_read(v);
	for (;;) {
		if (unlikely(c == (u)))
    2174:	48 be 00 00 00 00 00 	movabs $0x8000000000000000,%rsi
    217b:	00 00 80 
    217e:	48 39 f1             	cmp    %rsi,%rcx
    2181:	0f 84 ee fd ff ff    	je     1f75 <__scif_connect+0x75>
			break;
		old = atomic64_cmpxchg((v), c, c + (a));
    2187:	48 8d 51 01          	lea    0x1(%rcx),%rdx
#define atomic64_inc_return(v)  (atomic64_add_return(1, (v)))
#define atomic64_dec_return(v)  (atomic64_sub_return(1, (v)))

static inline long atomic64_cmpxchg(atomic64_t *v, long old, long new)
{
	return cmpxchg(&v->counter, old, new);
    218b:	48 89 c8             	mov    %rcx,%rax
    218e:	f0 49 0f b1 94 24 88 	lock cmpxchg %rdx,0x188(%r12)
    2195:	01 00 00 
	c = atomic64_read(v);
	for (;;) {
		if (unlikely(c == (u)))
			break;
		old = atomic64_cmpxchg((v), c, c + (a));
		if (likely(old == c))
    2198:	44 8b 95 68 ff ff ff 	mov    -0x98(%rbp),%r10d
    219f:	48 39 c8             	cmp    %rcx,%rax
#define atomic64_inc_return(v)  (atomic64_add_return(1, (v)))
#define atomic64_dec_return(v)  (atomic64_sub_return(1, (v)))

static inline long atomic64_cmpxchg(atomic64_t *v, long old, long new)
{
	return cmpxchg(&v->counter, old, new);
    21a2:	48 89 c2             	mov    %rax,%rdx
	c = atomic64_read(v);
	for (;;) {
		if (unlikely(c == (u)))
			break;
		old = atomic64_cmpxchg((v), c, c + (a));
		if (likely(old == c))
    21a5:	44 89 d3             	mov    %r10d,%ebx
    21a8:	0f 84 c7 fd ff ff    	je     1f75 <__scif_connect+0x75>
static inline int atomic64_add_unless(atomic64_t *v, long a, long u)
{
	long c, old;
	c = atomic64_read(v);
	for (;;) {
		if (unlikely(c == (u)))
    21ae:	48 39 f2             	cmp    %rsi,%rdx
    21b1:	74 16                	je     21c9 <__scif_connect+0x2c9>
			break;
		old = atomic64_cmpxchg((v), c, c + (a));
    21b3:	48 8d 4a 01          	lea    0x1(%rdx),%rcx
#define atomic64_inc_return(v)  (atomic64_add_return(1, (v)))
#define atomic64_dec_return(v)  (atomic64_sub_return(1, (v)))

static inline long atomic64_cmpxchg(atomic64_t *v, long old, long new)
{
	return cmpxchg(&v->counter, old, new);
    21b7:	48 89 d0             	mov    %rdx,%rax
    21ba:	f0 49 0f b1 4d 00    	lock cmpxchg %rcx,0x0(%r13)
	c = atomic64_read(v);
	for (;;) {
		if (unlikely(c == (u)))
			break;
		old = atomic64_cmpxchg((v), c, c + (a));
		if (likely(old == c))
    21c0:	48 39 c2             	cmp    %rax,%rdx
    21c3:	0f 85 08 07 00 00    	jne    28d1 <__scif_connect+0x9d1>
static inline int atomic64_add_unless(atomic64_t *v, long a, long u)
{
	long c, old;
	c = atomic64_read(v);
	for (;;) {
		if (unlikely(c == (u)))
    21c9:	44 89 d3             	mov    %r10d,%ebx
    21cc:	e9 a4 fd ff ff       	jmpq   1f75 <__scif_connect+0x75>
    21d1:	0f 1f 80 00 00 00 00 	nopl   0x0(%rax)
		return -ENODEV;

	spin_lock_irqsave(&ep->lock, sflags);
	switch (ep->state) {
	case SCIFEP_ZOMBIE:
		BUG_ON(SCIFEP_ZOMBIE == ep->state);
    21d8:	8b 03                	mov    (%rbx),%eax
	case SCIFEP_CLOSED:
	case SCIFEP_CLOSING:
	case SCIFEP_DISCONNECTED:
		err = -EINVAL;
    21da:	bb ea ff ff ff       	mov    $0xffffffea,%ebx
		return -ENODEV;

	spin_lock_irqsave(&ep->lock, sflags);
	switch (ep->state) {
	case SCIFEP_ZOMBIE:
		BUG_ON(SCIFEP_ZOMBIE == ep->state);
    21df:	83 f8 0a             	cmp    $0xa,%eax
    21e2:	0f 85 ad fd ff ff    	jne    1f95 <__scif_connect+0x95>
    21e8:	0f 0b                	ud2    
    21ea:	66 0f 1f 44 00 00    	nopw   0x0(%rax,%rax,1)
	case SCIFEP_DISCONNECTED:
		err = -EINVAL;
		goto connect_simple_unlock;
	case SCIFEP_LISTENING:
	case SCIFEP_CLLISTEN:
		err = -EOPNOTSUPP;
    21f0:	bb a1 ff ff ff       	mov    $0xffffffa1,%ebx
    21f5:	e9 9b fd ff ff       	jmpq   1f95 <__scif_connect+0x95>
    21fa:	66 0f 1f 44 00 00    	nopw   0x0(%rax,%rax,1)
	if ((err = micscif_nodeqp_send(ep->remote_dev, &msg, ep))) {
		micscif_dec_node_refcnt(ep->remote_dev, 1);
		goto connect_error_simple;
	}
	// Wait for request to be processed.
	while ((err = wait_event_interruptible_timeout(ep->conwq, 
    2200:	8b 13                	mov    (%rbx),%edx
    2202:	44 6b 25 00 00 00 00 	imul   $0x64,0x0(%rip),%r12d        # 220a <__scif_connect+0x30a>
    2209:	64 
    220a:	83 fa 05             	cmp    $0x5,%edx
    220d:	49 63 c4             	movslq %r12d,%rax
    2210:	0f 84 3a 01 00 00    	je     2350 <__scif_connect+0x450>
    2216:	41 83 fc 00          	cmp    $0x0,%r12d
    221a:	0f 8e d0 01 00 00    	jle    23f0 <__scif_connect+0x4f0>
	if (term_sent || err) {
		micscif_dec_node_refcnt(ep->remote_dev, 1);
		goto connect_error_simple;
	}

	if (ep->state == SCIFEP_MAPPING) {
    2220:	8b 03                	mov    (%rbx),%eax
    2222:	83 f8 06             	cmp    $0x6,%eax
    2225:	74 53                	je     227a <__scif_connect+0x37a>
		} else
			ep->state = SCIFEP_BOUND;
		micscif_dec_node_refcnt(ep->remote_dev, 1);
		goto connect_error_simple;

	} else if (ep->state == SCIFEP_BOUND) {
    2227:	8b 03                	mov    (%rbx),%eax
		pr_debug("SCIFAPI connect: ep %p connection refused\n", ep);
		err = -ECONNREFUSED;
		micscif_dec_node_refcnt(ep->remote_dev, 1);
    2229:	48 8b 8b 48 01 00 00 	mov    0x148(%rbx),%rcx
		} else
			ep->state = SCIFEP_BOUND;
		micscif_dec_node_refcnt(ep->remote_dev, 1);
		goto connect_error_simple;

	} else if (ep->state == SCIFEP_BOUND) {
    2230:	83 f8 02             	cmp    $0x2,%eax
    2233:	0f 84 2f 04 00 00    	je     2668 <__scif_connect+0x768>
 */
static __always_inline void
micscif_dec_node_refcnt(struct micscif_dev *dev, long cnt)
{
#ifdef SCIF_ENABLE_PM
	if (dev) {
    2239:	48 85 c9             	test   %rcx,%rcx
    223c:	74 21                	je     225f <__scif_connect+0x35f>
		if (unlikely((atomic_long_sub_return(cnt, 
    223e:	48 8d 99 88 01 00 00 	lea    0x188(%rcx),%rbx
 *
 * Atomically adds @i to @v and returns @i + @v
 */
static inline long atomic64_add_return(long i, atomic64_t *v)
{
	return i + xadd(&v->counter, i);
    2245:	48 c7 c0 ff ff ff ff 	mov    $0xffffffffffffffff,%rax
    224c:	f0 48 0f c1 81 88 01 	lock xadd %rax,0x188(%rcx)
    2253:	00 00 
    2255:	48 83 e8 01          	sub    $0x1,%rax
    2259:	0f 88 0a 05 00 00    	js     2769 <__scif_connect+0x869>
		micscif_dec_node_refcnt(ep->remote_dev, 1);
		goto connect_error_simple;

	} else {
		pr_debug("SCIFAPI connect: ep %p connection interrupted\n", ep);
		err = -EINTR;
    225f:	bb fc ff ff ff       	mov    $0xfffffffc,%ebx
    2264:	e9 0c fd ff ff       	jmpq   1f75 <__scif_connect+0x75>
    2269:	0f 1f 80 00 00 00 00 	nopl   0x0(%rax)
	case SCIFEP_MAPPING:
		err = -EISCONN;
		goto connect_simple_unlock;
	case SCIFEP_UNBOUND:
		if ((ep->port.port = get_scif_port()) == 0) {
			err = -ENOSPC;
    2270:	bb e4 ff ff ff       	mov    $0xffffffe4,%ebx
    2275:	e9 1b fd ff ff       	jmpq   1f95 <__scif_connect+0x95>
		micscif_dec_node_refcnt(ep->remote_dev, 1);
		goto connect_error_simple;
	}

	if (ep->state == SCIFEP_MAPPING) {
		err = micscif_setup_qp_connect_response(ep->remote_dev,
    227a:	48 8b 53 20          	mov    0x20(%rbx),%rdx
    227e:	48 8b 73 10          	mov    0x10(%rbx),%rsi
    2282:	48 8b bb 48 01 00 00 	mov    0x148(%rbx),%rdi
    2289:	e8 00 00 00 00       	callq  228e <__scif_connect+0x38e>
    228e:	41 89 c4             	mov    %eax,%r12d
			ep->qp_info.qp, ep->qp_info.cnct_gnt_payload);
		ep->remote_ep = ep->qp_info.qp->remote_qp->ep;
    2291:	48 8b 43 10          	mov    0x10(%rbx),%rax

		// If the resource to map the queue are not available then we need
		// to tell the other side to terminate the accept
		if (err) {
    2295:	45 85 e4             	test   %r12d,%r12d
	}

	if (ep->state == SCIFEP_MAPPING) {
		err = micscif_setup_qp_connect_response(ep->remote_dev,
			ep->qp_info.qp, ep->qp_info.cnct_gnt_payload);
		ep->remote_ep = ep->qp_info.qp->remote_qp->ep;
    2298:	48 8b 80 80 00 00 00 	mov    0x80(%rax),%rax
    229f:	48 8b 10             	mov    (%rax),%rdx
    22a2:	48 89 93 50 01 00 00 	mov    %rdx,0x150(%rbx)

		// If the resource to map the queue are not available then we need
		// to tell the other side to terminate the accept
		if (err) {
    22a9:	0f 85 4a 07 00 00    	jne    29f9 <__scif_connect+0xaf9>
		}

		// Send a grant ack to inform the accept we are done mapping its resources.
		msg.uop = SCIF_CNCT_GNTACK;
		msg.payload[0] = ep->remote_ep;
		if (!(err = micscif_nodeqp_send(ep->remote_dev, &msg, ep))) {
    22af:	48 8b bb 48 01 00 00 	mov    0x148(%rbx),%rdi
			goto connect_error_simple;
		}

		// Send a grant ack to inform the accept we are done mapping its resources.
		msg.uop = SCIF_CNCT_GNTACK;
		msg.payload[0] = ep->remote_ep;
    22b6:	48 89 55 b0          	mov    %rdx,-0x50(%rbp)
		if (!(err = micscif_nodeqp_send(ep->remote_dev, &msg, ep))) {
    22ba:	4c 89 fe             	mov    %r15,%rsi
    22bd:	48 89 da             	mov    %rbx,%rdx
			micscif_dec_node_refcnt(ep->remote_dev, 1);
			goto connect_error_simple;
		}

		// Send a grant ack to inform the accept we are done mapping its resources.
		msg.uop = SCIF_CNCT_GNTACK;
    22c0:	c7 45 ac 07 00 00 00 	movl   $0x7,-0x54(%rbp)
		msg.payload[0] = ep->remote_ep;
		if (!(err = micscif_nodeqp_send(ep->remote_dev, &msg, ep))) {
    22c7:	e8 00 00 00 00       	callq  22cc <__scif_connect+0x3cc>
    22cc:	85 c0                	test   %eax,%eax
    22ce:	41 89 c4             	mov    %eax,%r12d
    22d1:	0f 84 cc 04 00 00    	je     27a3 <__scif_connect+0x8a3>
			list_add_tail(&ep->list, &ms_info.mi_connected);
			get_conn_count(ep->remote_dev);
			spin_unlock_irqrestore(&ms_info.mi_connlock, sflags);
			pr_debug("SCIFAPI connect: ep %p connected\n", ep);
		} else
			ep->state = SCIFEP_BOUND;
    22d7:	c7 03 02 00 00 00    	movl   $0x2,(%rbx)
		micscif_dec_node_refcnt(ep->remote_dev, 1);
    22dd:	48 8b 8b 48 01 00 00 	mov    0x148(%rbx),%rcx
		}

		// Send a grant ack to inform the accept we are done mapping its resources.
		msg.uop = SCIF_CNCT_GNTACK;
		msg.payload[0] = ep->remote_ep;
		if (!(err = micscif_nodeqp_send(ep->remote_dev, &msg, ep))) {
    22e4:	44 89 e3             	mov    %r12d,%ebx
 */
static __always_inline void
micscif_dec_node_refcnt(struct micscif_dev *dev, long cnt)
{
#ifdef SCIF_ENABLE_PM
	if (dev) {
    22e7:	48 85 c9             	test   %rcx,%rcx
    22ea:	0f 84 85 fc ff ff    	je     1f75 <__scif_connect+0x75>
		if (unlikely((atomic_long_sub_return(cnt, 
    22f0:	4c 8d a1 88 01 00 00 	lea    0x188(%rcx),%r12
    22f7:	48 c7 c0 ff ff ff ff 	mov    $0xffffffffffffffff,%rax
    22fe:	f0 48 0f c1 81 88 01 	lock xadd %rax,0x188(%rcx)
    2305:	00 00 
    2307:	48 83 e8 01          	sub    $0x1,%rax
    230b:	0f 89 64 fc ff ff    	jns    1f75 <__scif_connect+0x75>
			&dev->scif_ref_cnt)) < 0)) {
			printk(KERN_ERR "%s %d dec dev %p node %d ref %ld "
    2311:	48 8b 45 08          	mov    0x8(%rbp),%rax
    2315:	ba a7 00 00 00       	mov    $0xa7,%edx
    231a:	48 c7 c6 00 00 00 00 	mov    $0x0,%rsi
    2321:	48 c7 c7 00 00 00 00 	mov    $0x0,%rdi
 * Atomically reads the value of @v.
 * Doesn't imply a read memory barrier.
 */
static inline long atomic64_read(const atomic64_t *v)
{
	return (*(volatile long *)&(v)->counter);
    2328:	4c 8b 89 88 01 00 00 	mov    0x188(%rcx),%r9
    232f:	44 0f b7 01          	movzwl (%rcx),%r8d
    2333:	48 89 04 24          	mov    %rax,(%rsp)
    2337:	31 c0                	xor    %eax,%eax
    2339:	e8 00 00 00 00       	callq  233e <__scif_connect+0x43e>
				" caller %p Lost Node?? \n", 
				__func__, __LINE__, dev, dev->sd_node, 
				atomic_long_read(&dev->scif_ref_cnt), 
				__builtin_return_address(0));
			atomic_long_add_unless(&dev->scif_ref_cnt, cnt, 
    233e:	4c 89 e7             	mov    %r12,%rdi
    2341:	e8 1a e1 ff ff       	callq  460 <atomic_long_add_unless.constprop.15>
    2346:	e9 2a fc ff ff       	jmpq   1f75 <__scif_connect+0x75>
    234b:	0f 1f 44 00 00       	nopl   0x0(%rax,%rax,1)
	if ((err = micscif_nodeqp_send(ep->remote_dev, &msg, ep))) {
		micscif_dec_node_refcnt(ep->remote_dev, 1);
		goto connect_error_simple;
	}
	// Wait for request to be processed.
	while ((err = wait_event_interruptible_timeout(ep->conwq, 
    2350:	4c 8d b5 78 ff ff ff 	lea    -0x88(%rbp),%r14
    2357:	48 c7 45 88 00 00 00 	movq   $0x0,-0x78(%rbp)
    235e:	00 
    235f:	48 c7 85 78 ff ff ff 	movq   $0x0,-0x88(%rbp)
    2366:	00 00 00 00 
    236a:	49 8d 56 18          	lea    0x18(%r14),%rdx
    236e:	65 4c 8b 24 25 00 00 	mov    %gs:0x0,%r12
    2375:	00 00 
    2377:	48 89 55 90          	mov    %rdx,-0x70(%rbp)
    237b:	4c 89 65 80          	mov    %r12,-0x80(%rbp)
    237f:	48 89 55 98          	mov    %rdx,-0x68(%rbp)
    2383:	48 8b bd 68 ff ff ff 	mov    -0x98(%rbp),%rdi
    238a:	ba 01 00 00 00       	mov    $0x1,%edx
    238f:	4c 89 f6             	mov    %r14,%rsi
    2392:	48 89 85 60 ff ff ff 	mov    %rax,-0xa0(%rbp)
    2399:	e8 00 00 00 00       	callq  239e <__scif_connect+0x49e>
    239e:	8b 13                	mov    (%rbx),%edx
    23a0:	48 8b 85 60 ff ff ff 	mov    -0xa0(%rbp),%rax
    23a7:	83 fa 05             	cmp    $0x5,%edx
    23aa:	0f 85 51 04 00 00    	jne    2801 <__scif_connect+0x901>
	return test_and_clear_ti_thread_flag(task_thread_info(tsk), flag);
}

static inline int test_tsk_thread_flag(struct task_struct *tsk, int flag)
{
	return test_ti_thread_flag(task_thread_info(tsk), flag);
    23b0:	49 8b 54 24 08       	mov    0x8(%r12),%rdx
}

static __always_inline int constant_test_bit(unsigned int nr, const volatile unsigned long *addr)
{
	return ((1UL << (nr % BITS_PER_LONG)) &
		(addr[nr / BITS_PER_LONG])) != 0;
    23b5:	48 8b 52 10          	mov    0x10(%rdx),%rdx
    23b9:	83 e2 04             	and    $0x4,%edx
    23bc:	0f 85 d6 02 00 00    	jne    2698 <__scif_connect+0x798>
    23c2:	48 89 c7             	mov    %rax,%rdi
    23c5:	e8 00 00 00 00       	callq  23ca <__scif_connect+0x4ca>
    23ca:	48 85 c0             	test   %rax,%rax
    23cd:	75 b4                	jne    2383 <__scif_connect+0x483>
    23cf:	45 31 e4             	xor    %r12d,%r12d
    23d2:	48 8b bd 68 ff ff ff 	mov    -0x98(%rbp),%rdi
    23d9:	4c 89 f6             	mov    %r14,%rsi
    23dc:	e8 00 00 00 00       	callq  23e1 <__scif_connect+0x4e1>
    23e1:	e9 30 fe ff ff       	jmpq   2216 <__scif_connect+0x316>
    23e6:	66 2e 0f 1f 84 00 00 	nopw   %cs:0x0(%rax,%rax,1)
    23ed:	00 00 00 
		pr_debug("SCIFAPI connect: ep %p ^C detected\n", ep);
		// interrupted out of the wait
		if (!term_sent++) {
			int bak_err = err;
			msg.uop = SCIF_CNCT_TERM;
			if (!(err = micscif_nodeqp_send(ep->remote_dev, &msg, ep))) {
    23f0:	48 8b bb 48 01 00 00 	mov    0x148(%rbx),%rdi
	}
	// Wait for request to be processed.
	while ((err = wait_event_interruptible_timeout(ep->conwq, 
		(ep->state != SCIFEP_CONNECTING), NODE_ALIVE_TIMEOUT)) <= 0) {
		if (!err)
			err = -ENODEV;
    23f7:	b8 ed ff ff ff       	mov    $0xffffffed,%eax
		pr_debug("SCIFAPI connect: ep %p ^C detected\n", ep);
		// interrupted out of the wait
		if (!term_sent++) {
			int bak_err = err;
			msg.uop = SCIF_CNCT_TERM;
			if (!(err = micscif_nodeqp_send(ep->remote_dev, &msg, ep))) {
    23fc:	48 89 da             	mov    %rbx,%rdx
    23ff:	4c 89 fe             	mov    %r15,%rsi
	}
	// Wait for request to be processed.
	while ((err = wait_event_interruptible_timeout(ep->conwq, 
		(ep->state != SCIFEP_CONNECTING), NODE_ALIVE_TIMEOUT)) <= 0) {
		if (!err)
			err = -ENODEV;
    2402:	44 0f 44 e0          	cmove  %eax,%r12d

		pr_debug("SCIFAPI connect: ep %p ^C detected\n", ep);
		// interrupted out of the wait
		if (!term_sent++) {
			int bak_err = err;
			msg.uop = SCIF_CNCT_TERM;
    2406:	c7 45 ac 0a 00 00 00 	movl   $0xa,-0x54(%rbp)
			if (!(err = micscif_nodeqp_send(ep->remote_dev, &msg, ep))) {
    240d:	e8 00 00 00 00       	callq  2412 <__scif_connect+0x512>
    2412:	85 c0                	test   %eax,%eax
    2414:	0f 85 3e 02 00 00    	jne    2658 <__scif_connect+0x758>
    241a:	65 48 8b 04 25 00 00 	mov    %gs:0x0,%rax
    2421:	00 00 
    2423:	48 89 85 60 ff ff ff 	mov    %rax,-0xa0(%rbp)
retry:
				err = wait_event_timeout(ep->diswq, 
    242a:	48 8d 85 78 ff ff ff 	lea    -0x88(%rbp),%rax
    2431:	48 83 c0 18          	add    $0x18,%rax
    2435:	48 89 85 58 ff ff ff 	mov    %rax,-0xa8(%rbp)
    243c:	8b 0b                	mov    (%rbx),%ecx
    243e:	6b 15 00 00 00 00 64 	imul   $0x64,0x0(%rip),%edx        # 2445 <__scif_connect+0x545>
    2445:	83 f9 05             	cmp    $0x5,%ecx
    2448:	4c 63 f2             	movslq %edx,%r14
    244b:	0f 84 ef 00 00 00    	je     2540 <__scif_connect+0x640>
					(ep->state != SCIFEP_CONNECTING), NODE_ALIVE_TIMEOUT);
				if (!err && scifdev_alive(ep))
    2451:	85 d2                	test   %edx,%edx
 * Returns true if the remote SCIF Device is running or sleeping for
 * this endpoint.
 */
static inline int scifdev_alive(struct endpt *ep)
{
	return (((SCIFDEV_RUNNING == ep->remote_dev->sd_state) ||
    2453:	4c 8b 93 48 01 00 00 	mov    0x148(%rbx),%r10
    245a:	75 10                	jne    246c <__scif_connect+0x56c>
    245c:	41 8b 42 04          	mov    0x4(%r10),%eax
    2460:	83 e8 02             	sub    $0x2,%eax
		(SCIFDEV_SLEEPING == ep->remote_dev->sd_state)) &&
    2463:	83 f8 01             	cmp    $0x1,%eax
    2466:	0f 86 54 01 00 00    	jbe    25c0 <__scif_connect+0x6c0>
				if (!err)
					err = -ENODEV;
				if (err > 0)
					err = 0;
			}
			if (ep->state == SCIFEP_MAPPING) {
    246c:	8b 03                	mov    (%rbx),%eax
    246e:	83 f8 06             	cmp    $0x6,%eax
    2471:	0f 84 2c 02 00 00    	je     26a3 <__scif_connect+0x7a3>
 */
static __always_inline void
micscif_dec_node_refcnt(struct micscif_dev *dev, long cnt)
{
#ifdef SCIF_ENABLE_PM
	if (dev) {
    2477:	4d 85 d2             	test   %r10,%r10
				msg.payload[0] = ep->remote_ep;
				/* No error handling for Notification messages */
				micscif_nodeqp_send(ep->remote_dev, &msg, ep);
			}
			// Ensure after that even after a timeout the state of the end point is bound
			ep->state = SCIFEP_BOUND;
    247a:	c7 03 02 00 00 00    	movl   $0x2,(%rbx)
    2480:	0f 84 b0 00 00 00    	je     2536 <__scif_connect+0x636>
		if (unlikely((atomic_long_sub_return(cnt, 
    2486:	4d 8d aa 88 01 00 00 	lea    0x188(%r10),%r13
 *
 * Atomically adds @i to @v and returns @i + @v
 */
static inline long atomic64_add_return(long i, atomic64_t *v)
{
	return i + xadd(&v->counter, i);
    248d:	48 c7 c0 ff ff ff ff 	mov    $0xffffffffffffffff,%rax
    2494:	f0 49 0f c1 82 88 01 	lock xadd %rax,0x188(%r10)
    249b:	00 00 
    249d:	48 83 e8 01          	sub    $0x1,%rax
    24a1:	44 89 e3             	mov    %r12d,%ebx
    24a4:	0f 89 cb fa ff ff    	jns    1f75 <__scif_connect+0x75>
			&dev->scif_ref_cnt)) < 0)) {
			printk(KERN_ERR "%s %d dec dev %p node %d ref %ld "
    24aa:	48 8b 45 08          	mov    0x8(%rbp),%rax
    24ae:	4c 89 d1             	mov    %r10,%rcx
    24b1:	ba a7 00 00 00       	mov    $0xa7,%edx
    24b6:	48 c7 c6 00 00 00 00 	mov    $0x0,%rsi
 * Atomically reads the value of @v.
 * Doesn't imply a read memory barrier.
 */
static inline long atomic64_read(const atomic64_t *v)
{
	return (*(volatile long *)&(v)->counter);
    24bd:	4d 8b 8a 88 01 00 00 	mov    0x188(%r10),%r9
    24c4:	48 c7 c7 00 00 00 00 	mov    $0x0,%rdi
    24cb:	4c 89 95 68 ff ff ff 	mov    %r10,-0x98(%rbp)
    24d2:	45 0f b7 02          	movzwl (%r10),%r8d
    24d6:	48 89 04 24          	mov    %rax,(%rsp)
    24da:	31 c0                	xor    %eax,%eax
    24dc:	e8 00 00 00 00       	callq  24e1 <__scif_connect+0x5e1>
    24e1:	4c 8b 95 68 ff ff ff 	mov    -0x98(%rbp),%r10
static inline int atomic64_add_unless(atomic64_t *v, long a, long u)
{
	long c, old;
	c = atomic64_read(v);
	for (;;) {
		if (unlikely(c == (u)))
    24e8:	48 be 00 00 00 00 00 	movabs $0x8000000000000000,%rsi
    24ef:	00 00 80 
 * Atomically reads the value of @v.
 * Doesn't imply a read memory barrier.
 */
static inline long atomic64_read(const atomic64_t *v)
{
	return (*(volatile long *)&(v)->counter);
    24f2:	49 8b 8a 88 01 00 00 	mov    0x188(%r10),%rcx
static inline int atomic64_add_unless(atomic64_t *v, long a, long u)
{
	long c, old;
	c = atomic64_read(v);
	for (;;) {
		if (unlikely(c == (u)))
    24f9:	48 39 f1             	cmp    %rsi,%rcx
    24fc:	0f 84 73 fa ff ff    	je     1f75 <__scif_connect+0x75>
			break;
		old = atomic64_cmpxchg((v), c, c + (a));
    2502:	48 8d 51 01          	lea    0x1(%rcx),%rdx
#define atomic64_inc_return(v)  (atomic64_add_return(1, (v)))
#define atomic64_dec_return(v)  (atomic64_sub_return(1, (v)))

static inline long atomic64_cmpxchg(atomic64_t *v, long old, long new)
{
	return cmpxchg(&v->counter, old, new);
    2506:	48 89 c8             	mov    %rcx,%rax
    2509:	f0 49 0f b1 55 00    	lock cmpxchg %rdx,0x0(%r13)
	c = atomic64_read(v);
	for (;;) {
		if (unlikely(c == (u)))
			break;
		old = atomic64_cmpxchg((v), c, c + (a));
		if (likely(old == c))
    250f:	48 39 c8             	cmp    %rcx,%rax
#define atomic64_inc_return(v)  (atomic64_add_return(1, (v)))
#define atomic64_dec_return(v)  (atomic64_sub_return(1, (v)))

static inline long atomic64_cmpxchg(atomic64_t *v, long old, long new)
{
	return cmpxchg(&v->counter, old, new);
    2512:	48 89 c2             	mov    %rax,%rdx
	c = atomic64_read(v);
	for (;;) {
		if (unlikely(c == (u)))
			break;
		old = atomic64_cmpxchg((v), c, c + (a));
		if (likely(old == c))
    2515:	0f 84 5a fa ff ff    	je     1f75 <__scif_connect+0x75>
static inline int atomic64_add_unless(atomic64_t *v, long a, long u)
{
	long c, old;
	c = atomic64_read(v);
	for (;;) {
		if (unlikely(c == (u)))
    251b:	48 39 f2             	cmp    %rsi,%rdx
    251e:	74 16                	je     2536 <__scif_connect+0x636>
			break;
		old = atomic64_cmpxchg((v), c, c + (a));
    2520:	48 8d 4a 01          	lea    0x1(%rdx),%rcx
#define atomic64_inc_return(v)  (atomic64_add_return(1, (v)))
#define atomic64_dec_return(v)  (atomic64_sub_return(1, (v)))

static inline long atomic64_cmpxchg(atomic64_t *v, long old, long new)
{
	return cmpxchg(&v->counter, old, new);
    2524:	48 89 d0             	mov    %rdx,%rax
    2527:	f0 49 0f b1 4d 00    	lock cmpxchg %rcx,0x0(%r13)
	c = atomic64_read(v);
	for (;;) {
		if (unlikely(c == (u)))
			break;
		old = atomic64_cmpxchg((v), c, c + (a));
		if (likely(old == c))
    252d:	48 39 c2             	cmp    %rax,%rdx
    2530:	0f 85 bb 04 00 00    	jne    29f1 <__scif_connect+0xaf1>
 */
static __always_inline void
micscif_dec_node_refcnt(struct micscif_dev *dev, long cnt)
{
#ifdef SCIF_ENABLE_PM
	if (dev) {
    2536:	44 89 e3             	mov    %r12d,%ebx
    2539:	e9 37 fa ff ff       	jmpq   1f75 <__scif_connect+0x75>
    253e:	66 90                	xchg   %ax,%ax
		if (!term_sent++) {
			int bak_err = err;
			msg.uop = SCIF_CNCT_TERM;
			if (!(err = micscif_nodeqp_send(ep->remote_dev, &msg, ep))) {
retry:
				err = wait_event_timeout(ep->diswq, 
    2540:	48 8b 85 60 ff ff ff 	mov    -0xa0(%rbp),%rax
    2547:	48 c7 45 88 00 00 00 	movq   $0x0,-0x78(%rbp)
    254e:	00 
    254f:	48 c7 85 78 ff ff ff 	movq   $0x0,-0x88(%rbp)
    2556:	00 00 00 00 
    255a:	48 89 45 80          	mov    %rax,-0x80(%rbp)
    255e:	48 8b 85 58 ff ff ff 	mov    -0xa8(%rbp),%rax
    2565:	48 89 45 90          	mov    %rax,-0x70(%rbp)
    2569:	48 89 45 98          	mov    %rax,-0x68(%rbp)
    256d:	eb 11                	jmp    2580 <__scif_connect+0x680>
    256f:	90                   	nop
    2570:	4c 89 f7             	mov    %r14,%rdi
    2573:	e8 00 00 00 00       	callq  2578 <__scif_connect+0x678>
    2578:	48 85 c0             	test   %rax,%rax
    257b:	49 89 c6             	mov    %rax,%r14
    257e:	74 58                	je     25d8 <__scif_connect+0x6d8>
    2580:	48 8d b5 78 ff ff ff 	lea    -0x88(%rbp),%rsi
    2587:	ba 02 00 00 00       	mov    $0x2,%edx
    258c:	4c 89 ef             	mov    %r13,%rdi
    258f:	e8 00 00 00 00       	callq  2594 <__scif_connect+0x694>
    2594:	8b 13                	mov    (%rbx),%edx
    2596:	83 fa 05             	cmp    $0x5,%edx
    2599:	74 d5                	je     2570 <__scif_connect+0x670>
    259b:	44 89 f2             	mov    %r14d,%edx
    259e:	48 8d b5 78 ff ff ff 	lea    -0x88(%rbp),%rsi
    25a5:	4c 89 ef             	mov    %r13,%rdi
    25a8:	89 95 68 ff ff ff    	mov    %edx,-0x98(%rbp)
    25ae:	e8 00 00 00 00       	callq  25b3 <__scif_connect+0x6b3>
    25b3:	8b 95 68 ff ff ff    	mov    -0x98(%rbp),%edx
    25b9:	e9 93 fe ff ff       	jmpq   2451 <__scif_connect+0x551>
    25be:	66 90                	xchg   %ax,%ax
    25c0:	83 bb 5c 01 00 00 02 	cmpl   $0x2,0x15c(%rbx)
    25c7:	0f 85 9f fe ff ff    	jne    246c <__scif_connect+0x56c>
    25cd:	e9 6a fe ff ff       	jmpq   243c <__scif_connect+0x53c>
    25d2:	66 0f 1f 44 00 00    	nopw   0x0(%rax,%rax,1)
    25d8:	31 d2                	xor    %edx,%edx
    25da:	eb c2                	jmp    259e <__scif_connect+0x69e>
    25dc:	0f 1f 40 00          	nopl   0x0(%rax)
 * Atomically reads the value of @v.
 * Doesn't imply a read memory barrier.
 */
static inline long atomic64_read(const atomic64_t *v)
{
	return (*(volatile long *)&(v)->counter);
    25e0:	49 8b 88 88 01 00 00 	mov    0x188(%r8),%rcx
 */
static __always_inline void
micscif_inc_node_refcnt(struct micscif_dev *dev, long cnt)
{
#ifdef SCIF_ENABLE_PM
	if (unlikely(dev && !atomic_long_add_unless(&dev->scif_ref_cnt, 
    25e7:	4d 8d 88 88 01 00 00 	lea    0x188(%r8),%r9
static inline int atomic64_add_unless(atomic64_t *v, long a, long u)
{
	long c, old;
	c = atomic64_read(v);
	for (;;) {
		if (unlikely(c == (u)))
    25ee:	48 be 00 00 00 00 00 	movabs $0x8000000000000000,%rsi
    25f5:	00 00 80 
    25f8:	48 39 f1             	cmp    %rsi,%rcx
    25fb:	0f 84 f0 00 00 00    	je     26f1 <__scif_connect+0x7f1>
			break;
		old = atomic64_cmpxchg((v), c, c + (a));
    2601:	48 8d 51 01          	lea    0x1(%rcx),%rdx
#define atomic64_inc_return(v)  (atomic64_add_return(1, (v)))
#define atomic64_dec_return(v)  (atomic64_sub_return(1, (v)))

static inline long atomic64_cmpxchg(atomic64_t *v, long old, long new)
{
	return cmpxchg(&v->counter, old, new);
    2605:	48 89 c8             	mov    %rcx,%rax
    2608:	f0 49 0f b1 90 88 01 	lock cmpxchg %rdx,0x188(%r8)
    260f:	00 00 
	c = atomic64_read(v);
	for (;;) {
		if (unlikely(c == (u)))
			break;
		old = atomic64_cmpxchg((v), c, c + (a));
		if (likely(old == c))
    2611:	48 39 c1             	cmp    %rax,%rcx
#define atomic64_inc_return(v)  (atomic64_add_return(1, (v)))
#define atomic64_dec_return(v)  (atomic64_sub_return(1, (v)))

static inline long atomic64_cmpxchg(atomic64_t *v, long old, long new)
{
	return cmpxchg(&v->counter, old, new);
    2614:	48 89 c2             	mov    %rax,%rdx
	c = atomic64_read(v);
	for (;;) {
		if (unlikely(c == (u)))
			break;
		old = atomic64_cmpxchg((v), c, c + (a));
		if (likely(old == c))
    2617:	75 0f                	jne    2628 <__scif_connect+0x728>
    2619:	4c 8b 83 48 01 00 00 	mov    0x148(%rbx),%r8
    2620:	e9 a0 fa ff ff       	jmpq   20c5 <__scif_connect+0x1c5>
    2625:	48 89 c2             	mov    %rax,%rdx
static inline int atomic64_add_unless(atomic64_t *v, long a, long u)
{
	long c, old;
	c = atomic64_read(v);
	for (;;) {
		if (unlikely(c == (u)))
    2628:	48 39 f2             	cmp    %rsi,%rdx
    262b:	0f 84 c0 00 00 00    	je     26f1 <__scif_connect+0x7f1>
			break;
		old = atomic64_cmpxchg((v), c, c + (a));
    2631:	48 8d 4a 01          	lea    0x1(%rdx),%rcx
#define atomic64_inc_return(v)  (atomic64_add_return(1, (v)))
#define atomic64_dec_return(v)  (atomic64_sub_return(1, (v)))

static inline long atomic64_cmpxchg(atomic64_t *v, long old, long new)
{
	return cmpxchg(&v->counter, old, new);
    2635:	48 89 d0             	mov    %rdx,%rax
    2638:	f0 49 0f b1 09       	lock cmpxchg %rcx,(%r9)
	c = atomic64_read(v);
	for (;;) {
		if (unlikely(c == (u)))
			break;
		old = atomic64_cmpxchg((v), c, c + (a));
		if (likely(old == c))
    263d:	48 39 c2             	cmp    %rax,%rdx
    2640:	75 e3                	jne    2625 <__scif_connect+0x725>
    2642:	4c 8b 83 48 01 00 00 	mov    0x148(%rbx),%r8
    2649:	4c 8d 7d a4          	lea    -0x5c(%rbp),%r15
    264d:	e9 73 fa ff ff       	jmpq   20c5 <__scif_connect+0x1c5>
    2652:	66 0f 1f 44 00 00    	nopw   0x0(%rax,%rax,1)
    2658:	4c 8b 93 48 01 00 00 	mov    0x148(%rbx),%r10
    265f:	e9 08 fe ff ff       	jmpq   246c <__scif_connect+0x56c>
    2664:	0f 1f 40 00          	nopl   0x0(%rax)
 */
static __always_inline void
micscif_dec_node_refcnt(struct micscif_dev *dev, long cnt)
{
#ifdef SCIF_ENABLE_PM
	if (dev) {
    2668:	48 85 c9             	test   %rcx,%rcx
    266b:	74 21                	je     268e <__scif_connect+0x78e>
		if (unlikely((atomic_long_sub_return(cnt, 
    266d:	48 8d 99 88 01 00 00 	lea    0x188(%rcx),%rbx
 *
 * Atomically adds @i to @v and returns @i + @v
 */
static inline long atomic64_add_return(long i, atomic64_t *v)
{
	return i + xadd(&v->counter, i);
    2674:	48 c7 c0 ff ff ff ff 	mov    $0xffffffffffffffff,%rax
    267b:	f0 48 0f c1 81 88 01 	lock xadd %rax,0x188(%rcx)
    2682:	00 00 
    2684:	48 83 e8 01          	sub    $0x1,%rax
    2688:	0f 88 84 01 00 00    	js     2812 <__scif_connect+0x912>
		micscif_dec_node_refcnt(ep->remote_dev, 1);
		goto connect_error_simple;

	} else if (ep->state == SCIFEP_BOUND) {
		pr_debug("SCIFAPI connect: ep %p connection refused\n", ep);
		err = -ECONNREFUSED;
    268e:	bb 91 ff ff ff       	mov    $0xffffff91,%ebx
    2693:	e9 dd f8 ff ff       	jmpq   1f75 <__scif_connect+0x75>
    2698:	41 bc 00 fe ff ff    	mov    $0xfffffe00,%r12d
    269e:	e9 2f fd ff ff       	jmpq   23d2 <__scif_connect+0x4d2>
					err = -ENODEV;
				if (err > 0)
					err = 0;
			}
			if (ep->state == SCIFEP_MAPPING) {
				micscif_setup_qp_connect_response(ep->remote_dev,
    26a3:	48 8b 53 20          	mov    0x20(%rbx),%rdx
    26a7:	4c 89 d7             	mov    %r10,%rdi
    26aa:	48 8b 73 10          	mov    0x10(%rbx),%rsi
    26ae:	e8 00 00 00 00       	callq  26b3 <__scif_connect+0x7b3>
					ep->qp_info.qp, ep->qp_info.cnct_gnt_payload);
				ep->remote_ep = ep->qp_info.qp->remote_qp->ep;
    26b3:	48 8b 43 10          	mov    0x10(%rbx),%rax
				// Send grant nack
				msg.uop = SCIF_CNCT_GNTNACK;
				msg.payload[0] = ep->remote_ep;
				/* No error handling for Notification messages */
				micscif_nodeqp_send(ep->remote_dev, &msg, ep);
    26b7:	48 89 da             	mov    %rbx,%rdx
    26ba:	4c 89 fe             	mov    %r15,%rsi
    26bd:	48 8b bb 48 01 00 00 	mov    0x148(%rbx),%rdi
					err = 0;
			}
			if (ep->state == SCIFEP_MAPPING) {
				micscif_setup_qp_connect_response(ep->remote_dev,
					ep->qp_info.qp, ep->qp_info.cnct_gnt_payload);
				ep->remote_ep = ep->qp_info.qp->remote_qp->ep;
    26c4:	48 8b 80 80 00 00 00 	mov    0x80(%rax),%rax
    26cb:	48 8b 00             	mov    (%rax),%rax
				// Send grant nack
				msg.uop = SCIF_CNCT_GNTNACK;
    26ce:	c7 45 ac 08 00 00 00 	movl   $0x8,-0x54(%rbp)
					err = 0;
			}
			if (ep->state == SCIFEP_MAPPING) {
				micscif_setup_qp_connect_response(ep->remote_dev,
					ep->qp_info.qp, ep->qp_info.cnct_gnt_payload);
				ep->remote_ep = ep->qp_info.qp->remote_qp->ep;
    26d5:	48 89 83 50 01 00 00 	mov    %rax,0x150(%rbx)
				// Send grant nack
				msg.uop = SCIF_CNCT_GNTNACK;
				msg.payload[0] = ep->remote_ep;
    26dc:	48 89 45 b0          	mov    %rax,-0x50(%rbp)
				/* No error handling for Notification messages */
				micscif_nodeqp_send(ep->remote_dev, &msg, ep);
    26e0:	e8 00 00 00 00       	callq  26e5 <__scif_connect+0x7e5>
    26e5:	4c 8b 93 48 01 00 00 	mov    0x148(%rbx),%r10
    26ec:	e9 86 fd ff ff       	jmpq   2477 <__scif_connect+0x577>
		cnt, SCIF_NODE_IDLE))) {
		/*
		 * This code path would not be entered unless the remote
		 * SCIF device has actually been put to sleep by the host.
		 */
		mutex_lock(&dev->sd_lock);
    26f1:	49 8d 80 68 01 00 00 	lea    0x168(%r8),%rax
    26f8:	4c 89 8d 58 ff ff ff 	mov    %r9,-0xa8(%rbp)
    26ff:	48 89 c7             	mov    %rax,%rdi
    2702:	4c 89 85 60 ff ff ff 	mov    %r8,-0xa0(%rbp)
    2709:	48 89 85 50 ff ff ff 	mov    %rax,-0xb0(%rbp)
    2710:	e8 00 00 00 00       	callq  2715 <__scif_connect+0x815>
		if (SCIFDEV_STOPPED == dev->sd_state ||
    2715:	4c 8b 85 60 ff ff ff 	mov    -0xa0(%rbp),%r8
    271c:	4c 8b 8d 58 ff ff ff 	mov    -0xa8(%rbp),%r9
    2723:	41 8b 40 04          	mov    0x4(%r8),%eax
			SCIFDEV_STOPPING == dev->sd_state ||
    2727:	8d 50 fc             	lea    -0x4(%rax),%edx
		/*
		 * This code path would not be entered unless the remote
		 * SCIF device has actually been put to sleep by the host.
		 */
		mutex_lock(&dev->sd_lock);
		if (SCIFDEV_STOPPED == dev->sd_state ||
    272a:	83 fa 01             	cmp    $0x1,%edx
    272d:	0f 86 d6 00 00 00    	jbe    2809 <__scif_connect+0x909>
    2733:	83 f8 01             	cmp    $0x1,%eax
    2736:	0f 84 cd 00 00 00    	je     2809 <__scif_connect+0x909>
    273c:	49 8b 80 88 01 00 00 	mov    0x188(%r8),%rax
    2743:	4c 8d 7d a4          	lea    -0x5c(%rbp),%r15
			SCIFDEV_STOPPING == dev->sd_state ||
			SCIFDEV_INIT == dev->sd_state)
			goto bail_out;
		if (test_bit(SCIF_NODE_MAGIC_BIT, 
    2747:	48 85 c0             	test   %rax,%rax
    274a:	0f 88 fc 00 00 00    	js     284c <__scif_connect+0x94c>
				clear_bit(SCIF_NODE_MAGIC_BIT, 
					&dev->scif_ref_cnt.counter);
			}
		}
		/* The ref count was not added if the node was idle. */
		atomic_long_add(cnt, &dev->scif_ref_cnt);
    2750:	4c 89 cf             	mov    %r9,%rdi
    2753:	e8 98 dd ff ff       	callq  4f0 <atomic_long_add.constprop.17>
bail_out:
		mutex_unlock(&dev->sd_lock);
    2758:	48 8b bd 50 ff ff ff 	mov    -0xb0(%rbp),%rdi
    275f:	e8 00 00 00 00       	callq  2764 <__scif_connect+0x864>
    2764:	e9 b0 fe ff ff       	jmpq   2619 <__scif_connect+0x719>
{
#ifdef SCIF_ENABLE_PM
	if (dev) {
		if (unlikely((atomic_long_sub_return(cnt, 
			&dev->scif_ref_cnt)) < 0)) {
			printk(KERN_ERR "%s %d dec dev %p node %d ref %ld "
    2769:	48 8b 45 08          	mov    0x8(%rbp),%rax
    276d:	ba a7 00 00 00       	mov    $0xa7,%edx
    2772:	48 c7 c6 00 00 00 00 	mov    $0x0,%rsi
    2779:	48 c7 c7 00 00 00 00 	mov    $0x0,%rdi
 * Atomically reads the value of @v.
 * Doesn't imply a read memory barrier.
 */
static inline long atomic64_read(const atomic64_t *v)
{
	return (*(volatile long *)&(v)->counter);
    2780:	4c 8b 89 88 01 00 00 	mov    0x188(%rcx),%r9
    2787:	44 0f b7 01          	movzwl (%rcx),%r8d
    278b:	48 89 04 24          	mov    %rax,(%rsp)
    278f:	31 c0                	xor    %eax,%eax
    2791:	e8 00 00 00 00       	callq  2796 <__scif_connect+0x896>
				" caller %p Lost Node?? \n", 
				__func__, __LINE__, dev, dev->sd_node, 
				atomic_long_read(&dev->scif_ref_cnt), 
				__builtin_return_address(0));
			atomic_long_add_unless(&dev->scif_ref_cnt, cnt, 
    2796:	48 89 df             	mov    %rbx,%rdi
    2799:	e8 c2 dc ff ff       	callq  460 <atomic_long_add_unless.constprop.15>
    279e:	e9 bc fa ff ff       	jmpq   225f <__scif_connect+0x35f>

		// Send a grant ack to inform the accept we are done mapping its resources.
		msg.uop = SCIF_CNCT_GNTACK;
		msg.payload[0] = ep->remote_ep;
		if (!(err = micscif_nodeqp_send(ep->remote_dev, &msg, ep))) {
			ep->state = SCIFEP_CONNECTED;
    27a3:	c7 03 04 00 00 00    	movl   $0x4,(%rbx)
			spin_lock_irqsave(&ms_info.mi_connlock, sflags);
    27a9:	48 c7 c7 00 00 00 00 	mov    $0x0,%rdi
    27b0:	e8 00 00 00 00       	callq  27b5 <__scif_connect+0x8b5>
 * Insert a new entry before the specified head.
 * This is useful for implementing queues.
 */
static inline void list_add_tail(struct list_head *new, struct list_head *head)
{
	__list_add(new, head->prev, head);
    27b5:	48 8b 15 00 00 00 00 	mov    0x0(%rip),%rdx        # 27bc <__scif_connect+0x8bc>
			list_add_tail(&ep->list, &ms_info.mi_connected);
    27bc:	48 8d 8b 40 02 00 00 	lea    0x240(%rbx),%rcx
static inline void __list_add(struct list_head *new,
			      struct list_head *prev,
			      struct list_head *next)
{
	next->prev = new;
	new->next = next;
    27c3:	48 c7 83 40 02 00 00 	movq   $0x0,0x240(%rbx)
    27ca:	00 00 00 00 
#ifndef CONFIG_DEBUG_LIST
static inline void __list_add(struct list_head *new,
			      struct list_head *prev,
			      struct list_head *next)
{
	next->prev = new;
    27ce:	48 89 0d 00 00 00 00 	mov    %rcx,0x0(%rip)        # 27d5 <__scif_connect+0x8d5>
    27d5:	48 89 c6             	mov    %rax,%rsi
    27d8:	48 c7 c7 00 00 00 00 	mov    $0x0,%rdi
	new->next = next;
	new->prev = prev;
    27df:	48 89 93 48 02 00 00 	mov    %rdx,0x248(%rbx)
	prev->next = new;
    27e6:	48 89 0a             	mov    %rcx,(%rdx)
			get_conn_count(ep->remote_dev);
    27e9:	48 8b 93 48 01 00 00 	mov    0x148(%rbx),%rdx
 * to synchronize calling this API with put_conn_count.
 */
static __always_inline void
get_conn_count(struct micscif_dev *dev)
{
	dev->num_active_conn++;
    27f0:	83 82 dc 01 00 00 01 	addl   $0x1,0x1dc(%rdx)
    27f7:	e8 00 00 00 00       	callq  27fc <__scif_connect+0x8fc>
    27fc:	e9 dc fa ff ff       	jmpq   22dd <__scif_connect+0x3dd>
    2801:	41 89 c4             	mov    %eax,%r12d
    2804:	e9 c9 fb ff ff       	jmpq   23d2 <__scif_connect+0x4d2>
    2809:	4c 8d 7d a4          	lea    -0x5c(%rbp),%r15
    280d:	e9 46 ff ff ff       	jmpq   2758 <__scif_connect+0x858>
{
#ifdef SCIF_ENABLE_PM
	if (dev) {
		if (unlikely((atomic_long_sub_return(cnt, 
			&dev->scif_ref_cnt)) < 0)) {
			printk(KERN_ERR "%s %d dec dev %p node %d ref %ld "
    2812:	48 8b 45 08          	mov    0x8(%rbp),%rax
    2816:	ba a7 00 00 00       	mov    $0xa7,%edx
    281b:	48 c7 c6 00 00 00 00 	mov    $0x0,%rsi
    2822:	48 c7 c7 00 00 00 00 	mov    $0x0,%rdi
    2829:	4c 8b 89 88 01 00 00 	mov    0x188(%rcx),%r9
    2830:	44 0f b7 01          	movzwl (%rcx),%r8d
    2834:	48 89 04 24          	mov    %rax,(%rsp)
    2838:	31 c0                	xor    %eax,%eax
    283a:	e8 00 00 00 00       	callq  283f <__scif_connect+0x93f>
				" caller %p Lost Node?? \n", 
				__func__, __LINE__, dev, dev->sd_node, 
				atomic_long_read(&dev->scif_ref_cnt), 
				__builtin_return_address(0));
			atomic_long_add_unless(&dev->scif_ref_cnt, cnt, 
    283f:	48 89 df             	mov    %rbx,%rdi
    2842:	e8 19 dc ff ff       	callq  460 <atomic_long_add_unless.constprop.15>
    2847:	e9 42 fe ff ff       	jmpq   268e <__scif_connect+0x78e>
			/* Notify host that the remote node must be woken */
			struct nodemsg notif_msg;

			dev->sd_wait_status = OP_IN_PROGRESS;
			notif_msg.uop = SCIF_NODE_WAKE_UP;
			notif_msg.src.node = ms_info.mi_nodeid;
    284c:	8b 05 00 00 00 00    	mov    0x0(%rip),%eax        # 2852 <__scif_connect+0x952>
			notif_msg.dst.node = SCIF_HOST_NODE;
			notif_msg.payload[0] = dev->sd_node;
			/* No error handling for Host SCIF device */
			micscif_nodeqp_send(&scif_dev[SCIF_HOST_NODE],
    2852:	31 d2                	xor    %edx,%edx
    2854:	4c 89 fe             	mov    %r15,%rsi
    2857:	48 c7 c7 00 00 00 00 	mov    $0x0,%rdi
		if (test_bit(SCIF_NODE_MAGIC_BIT, 
			&dev->scif_ref_cnt.counter)) {
			/* Notify host that the remote node must be woken */
			struct nodemsg notif_msg;

			dev->sd_wait_status = OP_IN_PROGRESS;
    285e:	49 c7 80 b0 01 00 00 	movq   $0x2,0x1b0(%r8)
    2865:	02 00 00 00 
			notif_msg.uop = SCIF_NODE_WAKE_UP;
    2869:	c7 45 ac 2e 00 00 00 	movl   $0x2e,-0x54(%rbp)
			notif_msg.src.node = ms_info.mi_nodeid;
			notif_msg.dst.node = SCIF_HOST_NODE;
    2870:	66 c7 45 a8 00 00    	movw   $0x0,-0x58(%rbp)
			/* Notify host that the remote node must be woken */
			struct nodemsg notif_msg;

			dev->sd_wait_status = OP_IN_PROGRESS;
			notif_msg.uop = SCIF_NODE_WAKE_UP;
			notif_msg.src.node = ms_info.mi_nodeid;
    2876:	66 89 45 a4          	mov    %ax,-0x5c(%rbp)
			notif_msg.dst.node = SCIF_HOST_NODE;
			notif_msg.payload[0] = dev->sd_node;
    287a:	41 0f b7 00          	movzwl (%r8),%eax
    287e:	4c 89 8d 58 ff ff ff 	mov    %r9,-0xa8(%rbp)
    2885:	4c 89 85 60 ff ff ff 	mov    %r8,-0xa0(%rbp)
    288c:	48 89 45 b0          	mov    %rax,-0x50(%rbp)
			/* No error handling for Host SCIF device */
			micscif_nodeqp_send(&scif_dev[SCIF_HOST_NODE],
    2890:	e8 00 00 00 00       	callq  2895 <__scif_connect+0x995>
			/*
			 * A timeout is not required since only the cards can
			 * initiate this message. The Host is expected to be alive.
			 * If the host has crashed then so will the cards.
			 */
			wait_event(dev->sd_wq, 
    2895:	4c 8b 85 60 ff ff ff 	mov    -0xa0(%rbp),%r8
    289c:	4c 8b 8d 58 ff ff ff 	mov    -0xa8(%rbp),%r9
    28a3:	49 83 b8 b0 01 00 00 	cmpq   $0x2,0x1b0(%r8)
    28aa:	02 
    28ab:	74 2c                	je     28d9 <__scif_connect+0x9d9>
				dev->sd_wait_status != OP_IN_PROGRESS);
			/*
			 * Aieee! The host could not wake up the remote node.
			 * Bail out for now.
			 */
			if (dev->sd_wait_status == OP_COMPLETED) {
    28ad:	49 83 b8 b0 01 00 00 	cmpq   $0x3,0x1b0(%r8)
    28b4:	03 
    28b5:	0f 85 95 fe ff ff    	jne    2750 <__scif_connect+0x850>
				dev->sd_state = SCIFDEV_RUNNING;
    28bb:	41 c7 40 04 02 00 00 	movl   $0x2,0x4(%r8)
    28c2:	00 
 */
static __always_inline void
clear_bit(int nr, volatile unsigned long *addr)
{
	if (IS_IMMEDIATE(nr)) {
		asm volatile(LOCK_PREFIX "andb %1,%0"
    28c3:	f0 41 80 a0 8f 01 00 	lock andb $0x7f,0x18f(%r8)
    28ca:	00 7f 
    28cc:	e9 7f fe ff ff       	jmpq   2750 <__scif_connect+0x850>
	c = atomic64_read(v);
	for (;;) {
		if (unlikely(c == (u)))
			break;
		old = atomic64_cmpxchg((v), c, c + (a));
		if (likely(old == c))
    28d1:	48 89 c2             	mov    %rax,%rdx
    28d4:	e9 d5 f8 ff ff       	jmpq   21ae <__scif_connect+0x2ae>
			/*
			 * A timeout is not required since only the cards can
			 * initiate this message. The Host is expected to be alive.
			 * If the host has crashed then so will the cards.
			 */
			wait_event(dev->sd_wq, 
    28d9:	48 8d bd 78 ff ff ff 	lea    -0x88(%rbp),%rdi
    28e0:	31 c0                	xor    %eax,%eax
    28e2:	b9 0a 00 00 00       	mov    $0xa,%ecx
    28e7:	f3 ab                	rep stos %eax,%es:(%rdi)
    28e9:	4c 8d b5 78 ff ff ff 	lea    -0x88(%rbp),%r14
    28f0:	48 c7 45 88 00 00 00 	movq   $0x0,-0x78(%rbp)
    28f7:	00 
    28f8:	65 48 8b 04 25 00 00 	mov    %gs:0x0,%rax
    28ff:	00 00 
    2901:	48 89 45 80          	mov    %rax,-0x80(%rbp)
    2905:	49 8d 46 18          	lea    0x18(%r14),%rax
    2909:	48 89 45 90          	mov    %rax,-0x70(%rbp)
    290d:	48 89 45 98          	mov    %rax,-0x68(%rbp)
    2911:	49 8d 80 98 01 00 00 	lea    0x198(%r8),%rax
    2918:	48 89 85 60 ff ff ff 	mov    %rax,-0xa0(%rbp)
    291f:	eb 13                	jmp    2934 <__scif_connect+0xa34>
    2921:	e8 00 00 00 00       	callq  2926 <__scif_connect+0xa26>
    2926:	4c 8b 85 58 ff ff ff 	mov    -0xa8(%rbp),%r8
    292d:	4c 8b 8d 48 ff ff ff 	mov    -0xb8(%rbp),%r9
    2934:	48 8b bd 60 ff ff ff 	mov    -0xa0(%rbp),%rdi
    293b:	ba 02 00 00 00       	mov    $0x2,%edx
    2940:	4c 89 f6             	mov    %r14,%rsi
    2943:	4c 89 8d 48 ff ff ff 	mov    %r9,-0xb8(%rbp)
    294a:	4c 89 85 58 ff ff ff 	mov    %r8,-0xa8(%rbp)
    2951:	e8 00 00 00 00       	callq  2956 <__scif_connect+0xa56>
    2956:	4c 8b 85 58 ff ff ff 	mov    -0xa8(%rbp),%r8
    295d:	4c 8b 8d 48 ff ff ff 	mov    -0xb8(%rbp),%r9
    2964:	49 83 b8 b0 01 00 00 	cmpq   $0x2,0x1b0(%r8)
    296b:	02 
    296c:	74 b3                	je     2921 <__scif_connect+0xa21>
    296e:	48 8b bd 60 ff ff ff 	mov    -0xa0(%rbp),%rdi
    2975:	4c 89 f6             	mov    %r14,%rsi
    2978:	4c 89 8d 48 ff ff ff 	mov    %r9,-0xb8(%rbp)
    297f:	4c 89 85 58 ff ff ff 	mov    %r8,-0xa8(%rbp)
    2986:	e8 00 00 00 00       	callq  298b <__scif_connect+0xa8b>
    298b:	4c 8b 8d 48 ff ff ff 	mov    -0xb8(%rbp),%r9
    2992:	4c 8b 85 58 ff ff ff 	mov    -0xa8(%rbp),%r8
    2999:	e9 0f ff ff ff       	jmpq   28ad <__scif_connect+0x9ad>
	}
	// Initiate the first part of the endpoint QP setup
	err = micscif_setup_qp_connect(ep->qp_info.qp, &ep->qp_info.qp_offset,
			ENDPT_QP_SIZE, ep->remote_dev);
	if (err) {
		printk(KERN_ERR "%s err %d qp_offset 0x%llx\n", 
    299e:	48 8b 4b 18          	mov    0x18(%rbx),%rcx
    29a2:	89 c2                	mov    %eax,%edx
    29a4:	31 c0                	xor    %eax,%eax
    29a6:	48 c7 c6 00 00 00 00 	mov    $0x0,%rsi
    29ad:	48 c7 c7 00 00 00 00 	mov    $0x0,%rdi
    29b4:	e8 00 00 00 00       	callq  29b9 <__scif_connect+0xab9>
			__func__, err, ep->qp_info.qp_offset);
		ep->state = SCIFEP_BOUND;
    29b9:	c7 03 02 00 00 00    	movl   $0x2,(%rbx)
		goto connect_error_simple;
    29bf:	44 89 fb             	mov    %r15d,%ebx
    29c2:	e9 ae f5 ff ff       	jmpq   1f75 <__scif_connect+0x75>
	ep->qp_info.qp->magic = SCIFEP_MAGIC;
	ep->qp_info.qp->ep = (uint64_t)ep;
	spin_unlock_irqrestore(&ep->lock, sflags);

	if ((err = micscif_reserve_dma_chan(ep))) {
		printk(KERN_ERR "%s %d err %d\n", __func__, __LINE__, err);
    29c7:	89 c1                	mov    %eax,%ecx
    29c9:	ba 06 03 00 00       	mov    $0x306,%edx
    29ce:	48 c7 c6 00 00 00 00 	mov    $0x0,%rsi
    29d5:	48 c7 c7 00 00 00 00 	mov    $0x0,%rdi
    29dc:	31 c0                	xor    %eax,%eax
    29de:	e8 00 00 00 00       	callq  29e3 <__scif_connect+0xae3>
		ep->state = SCIFEP_BOUND;
    29e3:	c7 03 02 00 00 00    	movl   $0x2,(%rbx)
		goto connect_error_simple;
    29e9:	44 89 fb             	mov    %r15d,%ebx
    29ec:	e9 84 f5 ff ff       	jmpq   1f75 <__scif_connect+0x75>
    29f1:	48 89 c2             	mov    %rax,%rdx
    29f4:	e9 22 fb ff ff       	jmpq   251b <__scif_connect+0x61b>
		ep->remote_ep = ep->qp_info.qp->remote_qp->ep;

		// If the resource to map the queue are not available then we need
		// to tell the other side to terminate the accept
		if (err) {
			printk(KERN_ERR "%s %d err %d\n", __func__, __LINE__, err);
    29f9:	44 89 e1             	mov    %r12d,%ecx
    29fc:	ba 58 03 00 00       	mov    $0x358,%edx
    2a01:	48 c7 c6 00 00 00 00 	mov    $0x0,%rsi
    2a08:	48 c7 c7 00 00 00 00 	mov    $0x0,%rdi
    2a0f:	31 c0                	xor    %eax,%eax
    2a11:	e8 00 00 00 00       	callq  2a16 <__scif_connect+0xb16>

			// Send grant nack
			msg.uop = SCIF_CNCT_GNTNACK;
			msg.payload[0] = ep->remote_ep;
    2a16:	48 8b 83 50 01 00 00 	mov    0x150(%rbx),%rax
			/* No error handling for Notification messages */
			micscif_nodeqp_send(ep->remote_dev, &msg, ep);
    2a1d:	48 89 da             	mov    %rbx,%rdx
    2a20:	4c 89 fe             	mov    %r15,%rsi
    2a23:	48 8b bb 48 01 00 00 	mov    0x148(%rbx),%rdi
		// to tell the other side to terminate the accept
		if (err) {
			printk(KERN_ERR "%s %d err %d\n", __func__, __LINE__, err);

			// Send grant nack
			msg.uop = SCIF_CNCT_GNTNACK;
    2a2a:	c7 45 ac 08 00 00 00 	movl   $0x8,-0x54(%rbp)
			msg.payload[0] = ep->remote_ep;
    2a31:	48 89 45 b0          	mov    %rax,-0x50(%rbp)
			/* No error handling for Notification messages */
			micscif_nodeqp_send(ep->remote_dev, &msg, ep);
    2a35:	e8 00 00 00 00       	callq  2a3a <__scif_connect+0xb3a>

			ep->state = SCIFEP_BOUND;
			micscif_dec_node_refcnt(ep->remote_dev, 1);
    2a3a:	4c 8b ab 48 01 00 00 	mov    0x148(%rbx),%r13
			msg.uop = SCIF_CNCT_GNTNACK;
			msg.payload[0] = ep->remote_ep;
			/* No error handling for Notification messages */
			micscif_nodeqp_send(ep->remote_dev, &msg, ep);

			ep->state = SCIFEP_BOUND;
    2a41:	c7 03 02 00 00 00    	movl   $0x2,(%rbx)
 */
static __always_inline void
micscif_dec_node_refcnt(struct micscif_dev *dev, long cnt)
{
#ifdef SCIF_ENABLE_PM
	if (dev) {
    2a47:	4d 85 ed             	test   %r13,%r13
    2a4a:	0f 84 e6 fa ff ff    	je     2536 <__scif_connect+0x636>
		if (unlikely((atomic_long_sub_return(cnt, 
    2a50:	4d 8d b5 88 01 00 00 	lea    0x188(%r13),%r14
    2a57:	44 89 e3             	mov    %r12d,%ebx
    2a5a:	4c 89 f7             	mov    %r14,%rdi
    2a5d:	e8 6e da ff ff       	callq  4d0 <atomic_long_sub_return.constprop.16>
    2a62:	48 85 c0             	test   %rax,%rax
    2a65:	0f 89 0a f5 ff ff    	jns    1f75 <__scif_connect+0x75>
			&dev->scif_ref_cnt)) < 0)) {
			printk(KERN_ERR "%s %d dec dev %p node %d ref %ld "
    2a6b:	48 8b 45 08          	mov    0x8(%rbp),%rax
    2a6f:	4c 89 e9             	mov    %r13,%rcx
    2a72:	ba a7 00 00 00       	mov    $0xa7,%edx
    2a77:	48 c7 c6 00 00 00 00 	mov    $0x0,%rsi
 * Atomically reads the value of @v.
 * Doesn't imply a read memory barrier.
 */
static inline long atomic64_read(const atomic64_t *v)
{
	return (*(volatile long *)&(v)->counter);
    2a7e:	4d 8b 8d 88 01 00 00 	mov    0x188(%r13),%r9
    2a85:	48 c7 c7 00 00 00 00 	mov    $0x0,%rdi
    2a8c:	45 0f b7 45 00       	movzwl 0x0(%r13),%r8d
    2a91:	48 89 04 24          	mov    %rax,(%rsp)
    2a95:	31 c0                	xor    %eax,%eax
    2a97:	e8 00 00 00 00       	callq  2a9c <__scif_connect+0xb9c>
				" caller %p Lost Node?? \n", 
				__func__, __LINE__, dev, dev->sd_node, 
				atomic_long_read(&dev->scif_ref_cnt), 
				__builtin_return_address(0));
			atomic_long_add_unless(&dev->scif_ref_cnt, cnt, 
    2a9c:	4c 89 f7             	mov    %r14,%rdi
